
/mnt/c/h/scr1-sdk-master/sw/mnist/build.de10lite_scr1.tcm.o2/mnist.elf:     file format elf32-littleriscv
/mnt/c/h/scr1-sdk-master/sw/mnist/build.de10lite_scr1.tcm.o2/mnist.elf
architecture: riscv:rv32, flags 0x00000112:
EXEC_P, HAS_SYMS, D_PAGED
start address 0xf0000000

Program Header:
    LOAD off    0x00001000 vaddr 0xf0000000 paddr 0xf0000000 align 2**12
         filesz 0x000044a0 memsz 0x000044a8 flags rwx
    LOAD off    0x00000800 vaddr 0xf000f800 paddr 0xf000f800 align 2**12
         filesz 0x00000000 memsz 0x00000800 flags rw-

Sections:
Idx Name                Size      VMA       LMA       File off  Algn  Flags
  0 .text.crt           00000060  f0000000  f0000000  00001000  2**0  CONTENTS, ALLOC, LOAD, READONLY, CODE
  1 .text               000013f4  f0000060  f0000060  00001060  2**2  CONTENTS, ALLOC, LOAD, READONLY, CODE
  2 .rodata.vfprintf    00000044  f0001454  f0001454  00002454  2**2  CONTENTS, ALLOC, LOAD, READONLY, DATA
  3 .rodata.exit.str1.4 00000007  f0001498  f0001498  00002498  2**2  CONTENTS, ALLOC, LOAD, READONLY, DATA
  4 .rodata.main.str1.4 0000011f  f00014a0  f00014a0  000024a0  2**2  CONTENTS, ALLOC, LOAD, READONLY, DATA
  5 .data               00002ee0  f00015c0  f00015c0  000025c0  2**2  CONTENTS, ALLOC, LOAD, DATA
  6 .sbss               00000008  f00044a0  f00044a0  000054a0  2**2  ALLOC
  7 .bss                00000000  f00044a8  f00044a8  00000000  2**0  ALLOC
  8 .stack              00000800  f000f800  f000f800  00005800  2**0  ALLOC
  9 .comment            00000012  00000000  00000000  000054a0  2**0  CONTENTS, READONLY
 10 .riscv.attributes   00000025  00000000  00000000  000054b2  2**0  CONTENTS, READONLY
SYMBOL TABLE:
f0000000 l    d  .text.crt	00000000 .text.crt
f0000060 l    d  .text	00000000 .text
f0001454 l    d  .rodata.vfprintf	00000000 .rodata.vfprintf
f0001498 l    d  .rodata.exit.str1.4	00000000 .rodata.exit.str1.4
f00014a0 l    d  .rodata.main.str1.4	00000000 .rodata.main.str1.4
f00015c0 l    d  .data	00000000 .data
f00044a0 l    d  .sbss	00000000 .sbss
f00044a8 l    d  .bss	00000000 .bss
f000f800 l    d  .stack	00000000 .stack
00000000 l    d  .comment	00000000 .comment
00000000 l    d  .riscv.attributes	00000000 .riscv.attributes
00000000 l    df *ABS*	00000000 printf.c
f0000060 l     F .text	000007d0 vfprintf
00000000 l    df *ABS*	00000000 nlib.c
00000000 l    df *ABS*	00000000 uart.c
00000000 l    df *ABS*	00000000 mnist.c
00000000 l    df *ABS*	00000000 neural_network.c
00000000 l    df *ABS*	00000000 fix16.c
00000000 l    df *ABS*	00000000 fix16_exp.c
00000000 l    df *ABS*	00000000 strnlen.c
f0000b48 g     F .text	0000003c scr_uart_init
f00008b8 g     F .text	00000048 putchar
f0000e00 g     F .text	00000130 neural_network_softmax
00000800 g       *ABS*	00000000 STACK_SIZE
f0000830 g     F .text	0000004c printf
f0001c54 g       .rodata.vfprintf	00000000 __global_pointer$
f0000f30 g     F .text	000000d0 neural_network_hypothesis
f0010000 g       .stack	00000000 __C_STACK_TOP__
f0001c54 g       .rodata.vfprintf	00000000 _gp
f000087c g     F .text	0000003c puts
f0001038 g     F .text	00000038 fix16_ssub
f00044a0 g     O .sbss	00000004 max_inf_time_h
f000141c g     F .text	00000038 strnlen
f0000b84  w    F .text	0000001c console_putc
f00010f0 g     F .text	0000009c fix16_smul
f00015c0 g     O .data	00002648 mnist_images
f0003cd0 g     O .data	000007d0 network_db
f00012a8 g     F .text	00000174 fix16_exp
f0001070 g     F .text	00000080 fix16_mul
f0000000 g       .text.crt	00000000 _start
f0000900 g     F .text	000000ac console_puthex16
f0000afc g     F .text	0000004c c_start
f00009ac g     F .text	000000b4 console_puthex32
f00044a8 g       .bss	00000000 __BSS_END__
f0003c08 g     O .data	000000c8 mnist_labels
f0000d14 g     F .text	000000ec main
f0001000 g     F .text	00000038 fix16_sadd
f00044a4 g     O .sbss	00000004 max_inf_time_l
f00044a0 g       .sbss	00000000 __BSS_START__
f0000ba0 g     F .text	00000174 calculate_accuracy
f000118c g     F .text	0000011c fix16_div
f00044b0 g       .sbss	00000000 _end
f0000ad0 g     F .text	0000002c exit
f0000a60 g     F .text	00000070 console_putstr
f0000b84 g     F .text	0000001c uart_putchar
f000f800 g       .stack	00000000 __STACK_START__


Contents of section .text.crt:
 f0000000 b7220000 93820288 73900230 73104030  ."......s..0s.@0
 f0000010 73104034 97210000 938101c4 97420000  s.@4.!.......B..
 f0000020 93824248 17430000 13034348 6f00c000  ..BH.C....CHo...
 f0000030 23a00200 93824200 e3ec62fe 17010100  #.....B...b.....
 f0000040 130141fc 73251030 9315a501 63d80500  ..A.s%.0....c...
 f0000050 37250000 73200530 73103000 6f00102a  7%..s .0s.0.o..*
Contents of section .text:
 f0000060 130101fa 232c8104 232e1104 232a9104  ....#,..#...#*..
 f0000070 23282105 23263105 23244105 23225105  #(!.#&1.#$A.#"Q.
 f0000080 23206105 232e7103 232c8103 232a9103  # a.#.q.#,..#*..
 f0000090 2328a103 2326b103 23200500 13040500  #(..#&..# ......
 f00000a0 03c50500 630e0572 b71a00f0 938c0500  ....c..r........
 f00000b0 93090600 13891500 130a9000 930be002  ................
 f00000c0 938a4a45 130b4101 6f000004 03278400  ..JE..A.o....'..
 f00000d0 6304073e 83270400 83264400 63dad700  c..>.'...&D.c...
 f00000e0 93071700 2324f400 2300a700 83270400  ....#$..#....'..
 f00000f0 93871700 2320f400 930c0900 03c50c00  ....# ..........
 f0000100 13091900 630c053c 93075002 e310f5fc  ....c..<..P.....
 f0000110 03c51c00 13892c00 e30af5fa 130d0000  ......,.........
 f0000120 93040000 130c0000 1307f001 9305c006  ................
 f0000130 13088006 13060001 63608703 930705fe  ........c`......
 f0000140 93f7f70f 636af600 93972700 b3875701  ....cj....'...W.
 f0000150 83a70700 67800700 93178c01 93d78741  ....g..........A
 f0000160 63c40728 930705fd 93f7f70f 6368fa26  c..(........ch.&
 f0000170 93760c04 63840632 93162d00 330ddd00  .v..c..2..-.3...
 f0000180 131d1d00 b307fd00 13fdf70f 03450900  .............E..
 f0000190 13091900 e31205fa 13789c0f 930c0900  .........x......
 f00001a0 93070007 63e8a732 93078005 6308f55a  ....c..2....c..Z
 f00001b0 9307f006 6314f532 93058000 93070000  ....c..2........
 f00001c0 93b71700 13955700 03a70900 13057500  ......W.......u.
 f00001d0 93894900 93060b00 6f008000 13870700  ..I.....o.......
 f00001e0 b377b702 6374fa00 b387a700 93870703  .w..ct..........
 f00001f0 2380f600 93861600 b357b702 e370b7fe  #........W...p..
 f0000200 338c6641 137cfc0f 1378f807 93770804  3.fA.|...x...w..
 f0000210 6384073a 9376e80f 6366ac4f 13770801  c..:.v..cf.O.w..
 f0000220 930d0c00 13880600 630e0738 93070102  ........c..8....
 f0000230 b3878701 83c637ff 93070003 6382f64e  ......7.....c..N
 f0000240 93774800 6394074e 938d1d00 93fdfd0f  .wH.c..N........
 f0000250 93778800 83268400 6386073c 63f89d40  .w...&..c..<c..@
 f0000260 b384b441 93f4f40f 63160740 93776808  ...A....c..@.wh.
 f0000270 63880704 13752800 13351500 3305a040  c....u(..5..3..@
 f0000280 93178801 137555ff 93d78741 1305b502  .....uU....A....
 f0000290 63c60734 638a0640 83270400 03274400  c..4c..@.'...'D.
 f00002a0 63dce700 93871600 2324f400 2380a600  c.......#$..#...
 f00002b0 83270400 83268400 93871700 2320f400  .'...&......# ..
 f00002c0 6370ac05 63800632 83270400 03274400  cp..c..2.'...'D.
 f00002d0 63dee700 93871600 2324f400 93070003  c.......#$......
 f00002e0 2380f600 83270400 83268400 93871700  #....'...&......
 f00002f0 130dfdff 2320f400 137dfd0f e314acfd  ....# ...}......
 f0000300 130cfcff 137cfc0f 330c8b01 6f008003  .....|..3...o...
 f0000310 83270400 03274400 63dae700 93871600  .'...'D.c.......
 f0000320 2324f400 2380a600 83270400 93871700  #$..#....'......
 f0000330 2320f400 9307fcff 63068b03 83268400  # ......c....&..
 f0000340 138c0700 03450c00 e39406fc ef00c056  .....E.........V
 f0000350 83270400 93871700 2320f400 9307fcff  .'......# ......
 f0000360 e31e8bfd 639e0402 6ff05fd9 83270400  ....c...o._..'..
 f0000370 83264400 63dcd700 93071700 2324f400  .&D.c.......#$..
 f0000380 93070002 2300f700 83270400 93871700  ....#....'......
 f0000390 9384f4ff 2320f400 93f4f40f e38004d6  ....# ..........
 f00003a0 03278400 e31407fc 13050002 ef00c050  .'.............P
 f00003b0 83270400 6ff09ffd 136c2c00 136c4c00  .'..o....l,..lL.
 f00003c0 6ff0dfdc 136c1c00 6ff05fdc 136c8c00  o....l..o._..l..
 f00003d0 6ff0dfdb 136c0c01 6ff05fdb 6304750f  o....l..o._.c.u.
 f00003e0 6300b51c e30405db 9377f5fd 9387b7fb  c........w......
 f00003f0 93f7f70f 13072000 6372f712 93073006  ...... .cr....0.
 f0000400 6304f51a 93073007 6318f51e 93770c04  c.....0.c....w..
 f0000410 83ad0900 9305f0ff 93894900 63840700  ..........I.c...
 f0000420 93050d00 13850d00 ef00507f 137c8c00  ..........P..|..
 f0000430 130d0500 63040c14 930c0900 e3040df2  ....c...........
 f0000440 138c0d00 6f00c003 83270400 83264400  ....o....'...&D.
 f0000450 63dad700 93071700 2324f400 2300a700  c.......#$..#...
 f0000460 83270400 93871700 2320f400 63860400  .'......# ..c...
 f0000470 9384f4ff 93f4f40f b307ac41 638eb711  ...........Ac...
 f0000480 03278400 130c1c00 0345fcff e31e07fa  .'.......E......
 f0000490 ef008042 83270400 6ff0dffc 93962400  ...B.'..o.....$.
 f00004a0 b384d400 93941400 b387f400 93f4f70f  ................
 f00004b0 136c0c02 6ff09fcd ef000040 83270400  .l..o......@.'..
 f00004c0 6ff01fc3 93770c04 639a0700 136c0c04  o....w..c....l..
 f00004d0 6ff0dfcb 93078007 6300f526 03250400  o.......c..&.%..
 f00004e0 8320c105 03248105 83244105 03290105  . ...$...$A..)..
 f00004f0 8329c104 032a8104 832a4104 032b0104  .)...*...*A..+..
 f0000500 832bc103 032c8103 832c4103 032d0103  .+...,...,A..-..
 f0000510 832dc102 13010106 67800000 93897900  .-......g.....y.
 f0000520 93f989ff 9307f003 93898900 230af100  ............#...
 f0000530 137c8c00 130d1000 930d0b00 e3120cf0  .|..............
 f0000540 e3709df0 03278400 63000704 83270400  .p...'..c....'..
 f0000550 83264400 63dcd700 93071700 2324f400  .&D.c.......#$..
 f0000560 93070002 2300f700 83270400 93871700  ....#....'......
 f0000570 9384f4ff 2320f400 93f4f40f e37e9dea  ....# .......~..
 f0000580 03278400 e31407fc 13050002 ef00c032  .'.............2
 f0000590 83270400 6ff09ffd 930c0900 6ff09fdc  .'..o.......o...
 f00005a0 136c0c08 6ff09fbe 83a70900 93894900  .l..o.........I.
 f00005b0 230af100 6ff0dff7 13770801 930d0c00  #...o....w......
 f00005c0 e31607c6 13776808 e30407c8 938d1d00  .....wh.........
 f00005d0 93fdfd0f 13070000 6ff09fc7 1305d002  ........o.......
 f00005e0 6ff05fcb 13050003 ef00002d 83270400  o._........-.'..
 f00005f0 83268400 6ff09fcf 93074006 630ef50a  .&..o.....@.c...
 f0000600 93079006 630af50a 93075007 6310f51c  ....c.....P.c...
 f0000610 1378fc0e 930c0900 9305a000 93070000  .x..............
 f0000620 6ff01fba 93771800 63940716 63f09d04  o....w..c...c...
 f0000630 638c0616 83270400 03264400 63dec700  c....'...&D.c...
 f0000640 93871600 2324f400 93070002 2380f600  ....#$......#...
 f0000650 83270400 83268400 93871700 938d1d00  .'...&..........
 f0000660 2320f400 93fdfd0f e3949dfc 93040000  # ..............
 f0000670 e30e07be 638c0618 83270400 03274400  ....c....'...'D.
 f0000680 63cae70e 93871700 2320f400 13774800  c.......# ...wH.
 f0000690 e30807c2 1315e801 1355f541 137505fe  .........U.A.u..
 f00006a0 13058507 e39c06be ef000021 83270400  ...........!.'..
 f00006b0 83268400 6ff05fc0 83a70900 1378fc06  .&..o._......x..
 f00006c0 93894900 63d60700 b307f040 13680808  ..I.c......@.h..
 f00006d0 93060b00 9305a000 33f7b702 93861600  ........3.......
 f00006e0 13850700 13070703 a38fe6fe b3d7b702  ................
 f00006f0 e364aafe 338c6641 137cfc0f 930c0900  .d..3.fA.|......
 f0000700 6ff0dfb0 93774801 13070001 638ee70c  o....wH.....c...
 f0000710 13770801 930d0d00 13880600 6ff0dfb0  .w..........o...
 f0000720 1378980e 13070000 6ff09fb2 938d2d00  .x......o.....-.
 f0000730 93fdfd0f 6ff0dfb1 137c0c01 93050001  ....o....|......
 f0000740 93070000 e30e0ca6 13684800 930c0900  .........hH.....
 f0000750 93050001 93070000 6ff09fa6 137c0c01  ........o....|..
 f0000760 63000c0a 13686800 93050001 93070010  c....hh.........
 f0000770 6ff01fa5 93871600 2324f400 93070003  o.......#$......
 f0000780 2380f600 83270400 83268400 6ff09fef  #....'...&..o...
 f0000790 63f29d06 330d9c00 330dbd41 137dfd0f  c...3...3..A.}..
 f00007a0 93040000 6ff05fac 13050002 2326e100  ....o._.....#&..
 f00007b0 23240101 ef004010 83270400 83268400  #$....@..'...&..
 f00007c0 0327c100 03288100 6ff01fe9 93070007  .'...(..o.......
 f00007d0 13789c0f 631af504 13680801 6ff0dff6  .x..c....h..o...
 f00007e0 13050000 6ff0dfcf 1378e80e 930d0d00  ....o....x......
 f00007f0 6ff05fdd 130d0c00 93040000 6ff0dfa6  o._.........o...
 f0000800 93050001 93070010 6ff09f9b 13050003  ........o.......
 f0000810 23240101 ef00400a 83270400 83268400  #$....@..'...&..
 f0000820 03288100 6ff01fe6 930c0900 6ff05f97  .(..o.......o._.
 f0000830 130101fc 13034102 2322b102 2324c102  ......A.#"..#$..
 f0000840 93050500 13060300 13054100 232e1100  ..........A.#...
 f0000850 2326d102 2328e102 232af102 232c0103  #&..#(..#*..#,..
 f0000860 232e1103 23260100 23206100 eff04fff  #...#&..# a...O.
 f0000870 8320c101 13010104 67800000 130101ff  . ......g.......
 f0000880 23248100 23261100 13040500 03450500  #$..#&.......E..
 f0000890 630a0500 13041400 ef000002 03450400  c............E..
 f00008a0 e31a05fe 03248100 8320c100 1305a000  .....$... ......
 f00008b0 13010101 6f004000 130101ff 23248100  ....o.@.....#$..
 f00008c0 23261100 9307a000 13040500 630cf500  #&..........c...
 f00008d0 13050400 03248100 8320c100 13010101  .....$... ......
 f00008e0 6f00402a 1305d000 ef00c029 13050400  o.@*.......)....
 f00008f0 03248100 8320c100 13010101 6f008028  .$... ......o..(
 f0000900 130101ff 23229100 93040500 1355c500  ....#".......U..
 f0000910 23248100 1375f500 13049000 b327a400  #$...u.......'..
 f0000920 b307f040 93f77700 93870703 3305f500  ...@..w.....3...
 f0000930 23261100 23202101 ef00c024 13d98400  #&..# !....$....
 f0000940 1375f900 b327a400 b307f040 93f77700  .u...'.....@..w.
 f0000950 93870703 3305f500 ef00c022 13d54400  ....3......"..D.
 f0000960 1375f500 b327a400 b307f040 93f77700  .u...'.....@..w.
 f0000970 93870703 3305f500 ef00c020 13f5f400  ....3...... ....
 f0000980 3324a400 33048040 13747400 13040403  3$..3..@.tt.....
 f0000990 33058500 03248100 8320c100 83244100  3....$... ...$A.
 f00009a0 03290100 13010101 6f00c01d 130101ff  .)......o.......
 f00009b0 23248100 23229100 13049000 93040500  #$..#"..........
 f00009c0 1355c501 b337a400 b307f040 93f77700  .U...7.....@..w.
 f00009d0 93870703 3305f500 23261100 23202101  ....3...#&..# !.
 f00009e0 ef00401a 13d98401 1375f900 b327a400  ..@......u...'..
 f00009f0 b307f040 93f77700 93870703 3305f500  ...@..w.....3...
 f0000a00 ef004018 13d54401 1375f500 b327a400  ..@...D..u...'..
 f0000a10 b307f040 93f77700 93870703 3305f500  ...@..w.....3...
 f0000a20 ef004016 13d90401 1375f900 3324a400  ..@......u..3$..
 f0000a30 33048040 13747400 13040403 33058500  3..@.tt.....3...
 f0000a40 ef004014 03248100 8320c100 03290100  ..@..$... ...)..
 f0000a50 13850400 83244100 13010101 6ff05fea  .....$A.....o._.
 f0000a60 130101ff 23261100 23248100 23229100  ....#&..#$..#"..
 f0000a70 23202101 03440500 63000404 93040500  # !..D..c.......
 f0000a80 1309a000 6f004001 13050400 ef00800f  ....o.@.........
 f0000a90 03c40400 63020402 93841400 e31624ff  ....c.........$.
 f0000aa0 1305d000 ef00000e 13050400 ef00800d  ................
 f0000ab0 03c40400 e31204fe 8320c100 03248100  ......... ...$..
 f0000ac0 83244100 03290100 13010101 67800000  .$A..)......g...
 f0000ad0 130101ff 23248100 13040500 13854184  ....#$........A.
 f0000ae0 23261100 eff0dff7 13050400 eff01fec  #&..............
 f0000af0 1305a000 eff05fdc 6f000000 130101ff  ......_.o.......
 f0000b00 23261100 ef004004 b70704f0 23a00700  #&....@.....#...
 f0000b10 23a40700 23a60700 23a80700 1307f0ff  #...#...#.......
 f0000b20 23aae700 23a8e700 13073001 23a2e700  #...#.....0.#...
 f0000b30 13071000 93050000 23a0e700 13050000  ........#.......
 f0000b40 ef00401d eff0dff8 b70701ff 23a20700  ..@.........#...
 f0000b50 23a80700 13073008 23a6e700 1307b000  #.....0.#.......
 f0000b60 23a0e700 23a20700 13073000 23a6e700  #...#.....0.#...
 f0000b70 13077000 23a4e700 13071000 23a4e700  ..p.#.......#...
 f0000b80 67800000 370701ff 83274701 93f70702  g...7....'G.....
 f0000b90 e38c07fe 9377f50f 2320f700 67800000  .....w..# ..g...
 f0000ba0 130101f8 232e1106 232c8106 232a9106  ....#...#,..#*..
 f0000bb0 23282107 23263107 23244107 23225107  #(!.#&1.#$A.#"Q.
 f0000bc0 23206107 232e7105 232c8105 232a9105  # a.#.q.#,..#*..
 f0000bd0 2328a105 2326b105 2326c100 63080612  #(..#&..#&..c...
 f0000be0 b74b00f0 138c0600 138a0500 930a0500  .K..............
 f0000bf0 b38cc500 130b0000 938b0b4a 1309a000  ...........J....
 f0000c00 f32400c0 732400c8 13068101 93050c00  .$..s$..........
 f0000c10 13850a00 ef00c031 732700c0 f32700c8  .......1s'...'..
 f0000c20 63749700 9387f7ff 83a60b00 b3878740  ct.............@
 f0000c30 33079740 63f0f60c b74600f0 9386464a  3..@c....F....FJ
 f0000c40 23a0fb00 23a0e600 032d8101 9304c101  #...#....-......
 f0000c50 93090000 930d0d00 13040000 6f00c000  ............o...
 f0000c60 83ad0400 93844400 93050d00 13850d00  ......D.........
 f0000c70 ef00803c 63460500 93090400 138d0d00  ...<cF..........
 f0000c80 13041400 e31e24fd 83470a00 130a1a00  ......$..G......
 f0000c90 938a1a03 b3893741 93b91900 330b3b01  ......7A....3.;.
 f0000ca0 e3904cf7 13054006 3305ab02 13150501  ..L...@.3.......
 f0000cb0 8327c100 03248107 8320c107 83244107  .'...$... ...$A.
 f0000cc0 03290107 8329c106 032a8106 832a4106  .)...)...*...*A.
 f0000cd0 032b0106 832bc105 032c8105 832c4105  .+...+...,...,A.
 f0000ce0 032d0105 832dc104 93950701 13010108  .-...-..........
 f0000cf0 6f00c049 e39af6f4 b74600f0 9386464a  o..I.....F....FJ
 f0000d00 03a60600 e372e6f4 6ff09ff3 13050000  .....r..o.......
 f0000d10 6ff01ffa 130101fe 232e1100 232c8100  o.......#...#,..
 f0000d20 232a9100 23282101 23263101 f32900c0  #*..#(!.#&1..)..
 f0000d30 f32400c8 b74600f0 b74500f0 371500f0  .$...F...E..7...
 f0000d40 938606cd 1306800c 938585c0 1305055c  ...............\
 f0000d50 eff01fe5 13040500 1385c184 eff01fb2  ................
 f0000d60 93550441 13858188 eff09fac 13860900  .U.A............
 f0000d70 93850400 1385018a eff09fab 732400c0  ............s$..
 f0000d80 732900c8 13060400 93050900 1385018c  s)..............
 f0000d90 eff01faa 63743401 1309f9ff 33043441  ....ct4.....3.4A
 f0000da0 b3049940 13060400 93850400 1385018e  ...@............
 f0000db0 eff01fa8 b74700f0 83a5074a b74700f0  .....G.....J.G..
 f0000dc0 03a6474a 13850190 eff09fa6 93060400  ..GJ............
 f0000dd0 13860400 9305800c 13858192 eff05fa5  .............._.
 f0000de0 8320c101 03248101 83244101 03290101  . ...$...$A..)..
 f0000df0 8329c100 13050000 13010102 67800000  .)..........g...
 f0000e00 130101fd 23229102 232c4101 232a5101  ....#"..#,A.#*Q.
 f0000e10 23261102 23248102 23202103 232e3101  #&..#$..# !.#.1.
 f0000e20 23286101 23267101 93071000 832a0500  #(a.#&q......*..
 f0000e30 93040500 138a0500 63d6b70e 13094500  ........c.....E.
 f0000e40 130bf0ff 13041000 83290900 93850a00  .........)......
 f0000e50 13094900 13850900 ef00001e 63460500  ..I.........cF..
 f0000e60 130b0400 938a0900 13041400 e31e8afc  ................
 f0000e70 93890400 13040000 13090000 b70b0100  ................
 f0000e80 6f000003 03a50900 13091900 93894900  o.............I.
 f0000e90 ef00801a ef004041 23aea9fe 93050500  ......@A#.......
 f0000ea0 13050400 ef00c015 13040500 63564903  ............cVI.
 f0000eb0 93850a00 e31869fd 23a07901 13050400  ......i.#.y.....
 f0000ec0 b7050100 ef00c013 13091900 13040500  ................
 f0000ed0 93894900 e34e49fd 13090000 03a50400  ..I..NI.........
 f0000ee0 93050400 13091900 ef00402a 23a0a400  ..........@*#...
 f0000ef0 93844400 e34449ff 8320c102 03248102  ..D..DI.. ...$..
 f0000f00 83244102 03290102 8329c101 032a8101  .$A..)...)...*..
 f0000f10 832a4101 032b0101 832bc100 13010103  .*A..+...+......
 f0000f20 67800000 e39af5fc 130bf0ff 6ff05ff4  g...........o._.
 f0000f30 130101fd 232a5101 b71a0000 938a4a89  ....#*Q.......J.
 f0000f40 23202103 232e3101 232c4101 23286101  # !.#.1.#,A.#(a.
 f0000f50 23267101 23261102 23248102 23229102  #&q.#&..#$..#"..
 f0000f60 138a0500 930b0600 130b0500 93090600  ................
 f0000f70 1389c50e b38a5501 83270a00 93040b00  ......U..'......
 f0000f80 1304c9f3 23a0f900 83c70400 93841400  ....#...........
 f0000f90 93958700 63800702 03250400 630c0500  ....c....%..c...
 f0000fa0 ef000015 93050500 03a50900 ef004005  ..............@.
 f0000fb0 23a0a900 13044400 e31824fd 1309440c  #.....D...$...D.
 f0000fc0 130a4a00 93894900 e31859fb 03248102  ..J...I...Y..$..
 f0000fd0 8320c102 83244102 03290102 8329c101  . ...$A..)...)..
 f0000fe0 032a8101 832a4101 032b0101 13850b00  .*...*A..+......
 f0000ff0 832bc100 9305a000 13010103 6ff05fe0  .+..........o._.
 f0001000 b347b500 13070500 3305b500 63c60700  .G......3...c...
 f0001010 b347a700 63c80700 b7070080 6304f500  .G..c.......c...
 f0001020 67800000 b7070080 13c5f7ff e35a07fe  g............Z..
 f0001030 37050080 67800000 b347b500 13070500  7...g....G......
 f0001040 3305b540 63c80700 b7070080 6308f500  3..@c.......c...
 f0001050 67800000 b347a700 e3d807fe b7070080  g....G..........
 f0001060 13c5f7ff e35607fe 37050080 67800000  .....V..7...g...
 f0001070 b7070100 9387f7ff 93560541 13d60541  .........V.A...A
 f0001080 3375f500 b3f5f500 b387b602 3307a602  3u..........3...
 f0001090 b305b502 b387e700 13970701 93d70741  ...............A
 f00010a0 3385c602 3307b700 b335b700 3385a700  3...3....5..3...
 f00010b0 3305b500 9357f541 9356f540 6396d702  3....W.A.V.@c...
 f00010c0 b786ffff b306d700 b387d700 3337f700  ............37..
 f00010d0 3305e540 93d70701 13150501 3365f500  3..@........3e..
 f00010e0 13051500 67800000 37050080 67800000  ....g...7...g...
 f00010f0 37060100 1306f6ff 13570541 b376c500  7........W.A.v..
 f0001100 93d70541 33f6c500 3308c702 b388d702  ...A3...3.......
 f0001110 b386c602 33081801 13160801 13580841  ....3........X.A
 f0001120 b307f702 3307d600 b336d700 b3870701  ....3....6......
 f0001130 b387d700 93d6f741 13d6f740 6396c602  .......A...@c...
 f0001140 3785ffff 3305a700 b386a600 3337d700  7...3.......37..
 f0001150 b387e740 13950701 93d60601 3365d500  ...@........3e..
 f0001160 13051500 67800000 93c5f5ff 9357f501  ....g........W..
 f0001170 93d5f501 37050080 1345f5ff 6384b700  ....7....E..c...
 f0001180 67800000 37050080 67800000 638a0510  g...7...g...c...
 f0001190 13d7f541 3343b700 9357f541 3303e340  ...A3C...W.A3..@
 f00011a0 370ef0ff 33c6a700 337ec301 3306f640  7...3...3~..3..@
 f00011b0 63100e0c 9377f300 13081001 13071000  c....w..........
 f00011c0 639c0700 13534300 9377f300 1308c8ff  c....SC..w......
 f00011d0 63940700 e318e8fe 63020608 b70800f0  c.......c.......
 f00011e0 930ef0ff b3761601 13070600 93070000  .....v..........
 f00011f0 639c0600 13174700 93874700 b3761701  c.....G...G..v..
 f0001200 93f7f70f e38806fe 634a0700 93871700  ........cJ......
 f0001210 13171700 93f7f70f e35a07fe 6354f800  .........Z..cT..
 f0001220 93070800 3316f600 b3566602 b307f840  ....3....Vf....@
 f0001230 33d7fe00 1347f7ff 3398f600 3377d700  3....G..3...3w..
 f0001240 33766602 330e0e01 631c0704 13161600  3vf.3...c.......
 f0001250 1388f7ff 63040600 e35608f8 130e1e00  ....c....V......
 f0001260 b3c5a500 13551e00 63c80502 67800000  .....U..c...g...
 f0001270 135e1301 130e1e00 335ec603 b3076e02  .^......3^....n.
 f0001280 3327c303 93d71701 1317f700 b367f700  3'...........g..
 f0001290 3306f640 6ff01ff2 3305a040 67800000  3..@o...3..@g...
 f00012a0 37050080 67800000 130101fd 23261102  7...g.......#&..
 f00012b0 23248102 23229102 23202103 232e3101  #$..#"..# !.#.1.
 f00012c0 232c4101 232a5101 23286101 23267101  #,A.#*Q.#(a.#&q.
 f00012d0 23248101 23229101 2320a101 630c050c  #$..#"..# ..c...
 f00012e0 37090100 130a0500 63042513 b7670a00  7.......c.%..g..
 f00012f0 9387e75a 63c8a70c b737f4ff 9387e776  ...Zc....7.....v
 f0001300 634ef50a 9357f541 33cda700 330dfd40  cN...W.A3...3..@
 f0001310 33092d01 13040d00 93043000 b7090200  3.-.......0.....
 f0001320 930a301f 130ce001 930bf000 930c3001  ..0...........0.
 f0001330 370b0100 6f004001 63eefb02 63dcac02  7...o.@.c...c...
 f0001340 b3896901 93841400 93850900 13050d00  ..i.............
 f0001350 eff0dfe3 93050500 13050400 eff05fd1  .............._.
 f0001360 13040500 9387f4ff 3309a900 e3d6aafc  ........3.......
 f0001370 e39884fd 634e0a04 8320c102 03248102  ....cN... ...$..
 f0001380 83244102 8329c101 032a8101 832a4101  .$A..)...*...*A.
 f0001390 032b0101 832bc100 032c8100 832c4100  .+...+...,...,A.
 f00013a0 032d0100 13050900 03290102 13010103  .-.......)......
 f00013b0 67800000 37090100 6ff01ffc 13090000  g...7...o.......
 f00013c0 6ff09ffb 37090080 1349f9ff 6ff0dffa  o...7....I..o...
 f00013d0 03248102 8320c102 83244102 8329c101  .$... ...$A..)..
 f00013e0 032a8101 832a4101 032b0101 832bc100  .*...*A..+...+..
 f00013f0 032c8100 832c4100 032d0100 93050900  .,...,A..-......
 f0001400 03290102 37050100 13010103 6ff01fd8  .)..7.......o...
 f0001410 37b90200 1309197e 6ff01ff6 b306b500  7......~o.......
 f0001420 93070500 63980500 6f004002 93871700  ....c...o.@.....
 f0001430 638af600 03c70700 e31a07fe 3385a740  c...........3..@
 f0001440 67800000 3385a640 67800000 13050000  g...3..@g.......
 f0001450 67800000                             g...            
Contents of section .rodata.vfprintf:
 f0001454 bc0300f0 580100f0 580100f0 d40300f0  ....X...X.......
 f0001464 580100f0 580100f0 580100f0 580100f0  X...X...X...X...
 f0001474 580100f0 580100f0 580100f0 b80300f0  X...X...X.......
 f0001484 580100f0 cc0300f0 580100f0 580100f0  X.......X...X...
 f0001494 c40300f0                             ....            
Contents of section .rodata.exit.str1.4:
 f0001498 0a457869 742000                      .Exit .         
Contents of section .rodata.main.str1.4:
 f00014a0 2a2a2a2a 2a2a2a2a 2a2a2a2a 2a2a2a2a  ****************
 f00014b0 2a205065 72666f72 6d616e63 65205375  * Performance Su
 f00014c0 6d6d6172 793a202a 2a2a2a2a 2a2a2a2a  mmary: *********
 f00014d0 2a2a2a2a 2a2a2a2a 2a000000 41636375  *********...Accu
 f00014e0 72616379 5b25255d 3a200909 09202564  racy[%%]: ... %d
 f00014f0 0a000000 53746172 74207469 6d652028  ....Start time (
 f0001500 68657829 3a200909 20253038 78253038  hex): .. %08x%08
 f0001510 780a0000 456e6420 74696d65 20286865  x...End time (he
 f0001520 78293a20 09092025 30387825 3038780a  x): .. %08x%08x.
 f0001530 00000000 546f7461 6c207469 6d652028  ....Total time (
 f0001540 68657829 3a200909 20253038 78253038  hex): .. %08x%08
 f0001550 780a0000 576f7273 7420696e 66657265  x...Worst infere
 f0001560 6e636520 74696d65 20286865 78293a20  nce time (hex): 
 f0001570 09202530 38782530 38780a00 466f7220  . %08x%08x..For 
 f0001580 5468726f 75676870 75742063 616c6375  Throughput calcu
 f0001590 6c617469 6f6e2064 69766964 65202564  lation divide %d
 f00015a0 20627920 746f7461 6c207469 6d652028   by total time (
 f00015b0 68657829 20253038 78253038 780a00    hex) %08x%08x.. 
Contents of section .data:
 f00015c0 00000000 00000000 10190000 00000029  ...............)
 f00015d0 637c9c4b 00000000 00910700 0000003b  c|.K...........;
 f00015e0 58000000 000a9902 00000000 41510000  X...........AQ..
 f00015f0 0000000f 33050000 0008b195 53000000  ....3.......S...
 f0001600 0003a624 00000000 5b6f0000 000000c2  ...$....[o......
 f0001610 0e011613 000090b0 957a3900 00000000  .........z9.....
 f0001620 00000000 00000000 00000000 02630000  .............c..
 f0001630 00000039 3c000000 00007905 00000000  ...9<.....y.....
 f0001640 00830000 00000027 63000000 00000000  .......'c.......
 f0001650 00000000 00000000 00000000 14d22400  ..............$.
 f0001660 000002b9 c1b81d00 000fa701 4a8f0000  ............J...
 f0001670 368649d7 3c000009 b8e05d00 00000000  6.I.<.....].....
 f0001680 00000000 00000000 00000000 00420013  .............B..
 f0001690 1a000005 75003c3f 0000383e 00910400  ....u.<?..8>....
 f00016a0 000d6d63 b5000000 0000009a 00000000  ..mc............
 f00016b0 00000f00 00000000 00000000 00000006  ................
 f00016c0 74000000 00005471 00000000 00a41800  t.....Tq........
 f00016d0 00000007 af000000 00002972 00000000  ..........)r....
 f00016e0 00011000 00000000 00000000 00000164  ...............d
 f00016f0 02004400 00434f00 513b0000 2c9573ad  ..D..CO.Q;..,.s.
 f0001700 00000000 00563300 00000000 9e3a0000  .....V3......:..
 f0001710 00000017 01000000 00000000 00000000  ................
 f0001720 14360000 00000097 c8350000 00009395  .6.......5......
 f0001730 7c000000 0031238b 09000000 00001a69  |....1#........i
 f0001740 00000000 00003100 00000000 00000000  ......1.........
 f0001750 000062bc ba2d0025 57331700 0000a43b  ..b..-.%W3.....;
 f0001760 12070000 003999e9 cf000000 0003af7a  .....9.........z
 f0001770 00000000 00000000 00000000 00000000  ................
 f0001780 0000000e 21000000 088c85a2 99000032  ....!..........2
 f0001790 ae9cdc58 00000003 b34c0000 00005c8d  ...X.....L....\.
 f00017a0 00000000 00770a00 00000000 00000000  .....w..........
 f00017b0 00000077 8e9e3300 00028a00 08940000  ...w..3.........
 f00017c0 31460000 89000055 31002b78 00001fac  1F.....U1.+x....
 f00017d0 ac9a0400 00000000 00000000 000d1a00  ................
 f00017e0 00000000 781b0000 00000083 11785c00  ....x........x\.
 f00017f0 002869a0 1b660000 336c733c 5a000001  .(i..f..3ls<Z...
 f0001800 6c834f00 00000000 00000000 00000000  l.O.............
 f0001810 00000000 00002e1d 05000000 5e759635  ............^u.5
 f0001820 000000b7 42ac0000 0000366a 68000000  ....B.....6jh...
 f0001830 00008415 00000000 005b0000 00000000  .........[......
 f0001840 00000000 00001e96 9c000000 00b93e7e  ..............>~
 f0001850 43000015 a2001d83 00002586 002a6b00  C.........%..*k.
 f0001860 0000763b 940d0000 0000260c 00000000  ..v;......&.....
 f0001870 00000000 00000000 af0c0000 000000b7  ................
 f0001880 18000000 0000bf10 00000000 00b71000  ................
 f0001890 00000008 bb100000 00000000 00000000  ................
 f00018a0 00000000 00000000 8b7c4402 00000086  .........|D.....
 f00018b0 44050000 00054e28 67350000 00000000  D.....N(g5......
 f00018c0 7c00000a 83626549 00000000 00000000  |....beI........
 f00018d0 00000000 00000000 00216e1c 0000000d  .........!n.....
 f00018e0 8d077627 00003951 09b00600 00016964  ..v'..9Q......id
 f00018f0 9c000000 00004363 00000000 003a1500  ......Cc.....:..
 f0001900 00000000 00000000 00333412 00000000  .........34.....
 f0001910 4b658ab1 30000000 00007141 00000000  Ke..0.....qA....
 f0001920 1fb10200 000003bb 1e000000 00355700  .............5W.
 f0001930 00000000 00000000 000069b2 3b000000  ..........i.;...
 f0001940 00801bad 37000000 217cc4bc 53000000  ....7...!|..S...
 f0001950 870703ae 1900002b 8b9fa00a 00000000  .......+........
 f0001960 00000000 00000000 00000000 00004100  ..............A.
 f0001970 00000061 00660000 00019f65 92000000  ...a.f.....e....
 f0001980 00270f86 00000000 00255200 00000000  .'.......%R.....
 f0001990 070b0000 00000000 00000000 00001c48  ...............H
 f00019a0 07000000 4dbef958 000000bc 91be0100  ....M..X........
 f00019b0 0000008c 2e000000 00349900 00000000  .........4......
 f00019c0 44120000 00000000 2d030000 00002891  D.......-.....(.
 f00019d0 0d000000 00831200 00000000 a9858905  ................
 f00019e0 00000083 0a861b00 0000128a 5a000000  ............Z...
 f00019f0 00000000 00000000 1a000000 00000075  ...............u
 f0001a00 00000000 001f610e 7f310000 1f616d1a  ......a..1...am.
 f0001a10 74000000 83ba762a 00000000 6d3a0000  t.....v*....m:..
 f0001a20 00000000 00000000 00000000 00000000  ................
 f0001a30 085b7072 0b000043 4b000200 00007753  .[pr...CK.....wS
 f0001a40 13000000 00182c9f 00000008 818f2800  ......,.......(.
 f0001a50 0000041c 00000000 00000000 00000000  ................
 f0001a60 0039070d 00000000 52005900 00002750  .9......R.Y...'P
 f0001a70 035a0200 00002743 85070000 00000057  .Z....'C.......W
 f0001a80 00000000 00001100 00000000 00000000  ................
 f0001a90 00002f71 d24f0000 47f54d74 c40200b3  ../q.O..G.Mt....
 f0001aa0 c00220e4 0e00adbf b0f28200 0032e4d0  .. ..........2..
 f0001ab0 5b000000 00000000 00000000 00000000  [...............
 f0001ac0 00000000 00000000 005b6362 9d000000  .........[cb....
 f0001ad0 1c000088 00000000 00006f00 00000000  ..........o.....
 f0001ae0 02770000 0000003c 30000000 00000000  .w.....<0.......
 f0001af0 00000000 0d452113 0000007c 23671a00  .....E!....|#g..
 f0001b00 002dc640 a1000000 05325ca5 00000000  .-.@.....2\.....
 f0001b10 000c8b00 00000000 00120000 00000000  ................
 f0001b20 00000000 005bbe8c 02000000 486cc53c  .....[......Hl.<
 f0001b30 00000090 015b6400 0004a200 58480000  .....[d.....XH..
 f0001b40 01cfcea4 02000000 091e0000 00000000  ................
 f0001b50 00000000 00002c63 00000000 00009500  ......,c........
 f0001b60 00000000 00ac0000 00000000 9c010000  ................
 f0001b70 00000099 15000000 00000000 00000000  ................
 f0001b80 00000000 00000c71 79160000 001144c0  .......qy.....D.
 f0001b90 41000000 0020b888 00000000 000ab60a  A.... ..........
 f0001ba0 0000005d a7280000 00004e05 00000000  ...].(....N.....
 f0001bb0 00000000 00000000 005f0000 00000000  ........._......
 f0001bc0 8c000000 00000083 0a000000 00005c2e  ..............\.
 f0001bd0 00000000 00434300 00000000 03160000  .....CC.........
 f0001be0 00000000 00000000 1ea78805 0000000b  ................
 f0001bf0 109e0c00 000000a0 c6560000 00000003  .........V......
 f0001c00 932a0000 001e6cb9 2c000000 23350700  .*....l.,...#5..
 f0001c10 00000000 00000000 00004612 001d1800  ..........F.....
 f0001c20 008d1400 70120024 97000097 00009eaa  ....p..$........
 f0001c30 8e717d00 00060200 0a1c0000 00000000  .q}.............
 f0001c40 00000000 00000000 0000124f 3c5f4600  ...........O<_F.
 f0001c50 0000344d ac5f0000 00002ac3 0c000000  ..4M._....*.....
 f0001c60 14d63200 000000b9 56000000 00056a02  ..2.....V.....j.
 f0001c70 00000000 00000000 00000000 5f94876c  ............_..l
 f0001c80 00003643 00047b00 00000000 83200000  ..6C..{...... ..
 f0001c90 054d9747 0f00009d b0459633 00000000  .M.G.....E.3....
 f0001ca0 00000000 00000000 00000000 0d1d3f23  ..............?#
 f0001cb0 000008af 72379c09 00081100 028f0000  ....r7..........
 f0001cc0 00000055 a2180000 0000a618 01000000  ...U............
 f0001cd0 004f0000 00000000 00000000 0000016d  .O.............m
 f0001ce0 00000000 0000bb00 00000000 00b60400  ................
 f0001cf0 00000000 b0050000 000000a1 05000000  ................
 f0001d00 00001900 00000000 00000000 00000041  ...............A
 f0001d10 b4250000 00032b5b 0b000000 00016000  .%....+[......`.
 f0001d20 00000000 571d5169 030003b0 82240000  ....W.Qi.....$..
 f0001d30 00000000 00000000 00000000 00000000  ................
 f0001d40 00803f00 00000000 be400000 000008f4  ..?......@......
 f0001d50 09000000 0008ce00 00000000 04d80000  ................
 f0001d60 00000000 00000000 00000000 00000000  ................
 f0001d70 00004d00 00000000 004d0000 00000000  ..M......M......
 f0001d80 59000000 0000005e 00000000 00005700  Y......^......W.
 f0001d90 00000000 00000000 00000000 00000000  ................
 f0001da0 00000131 14000000 248b5c86 00000000  ...1....$.\.....
 f0001db0 00066800 00000000 70a81a00 00000366  ..h.....p......f
 f0001dc0 00000000 00221700 00000000 00000000  ....."..........
 f0001dd0 00000043 00450300 00088a09 c8020000  ...C.E..........
 f0001de0 198caca8 00000000 40905c00 00000000  ........@.\.....
 f0001df0 6c230000 00000029 0e000000 00000000  l#.....)........
 f0001e00 00000000 001d5c00 00000000 313a0000  ......\.....1:..
 f0001e10 00000975 101f0000 409e7745 4914003e  ...u....@.wEI..>
 f0001e20 09000000 00000000 00000000 00000000  ................
 f0001e30 00000000 00819000 00000000 008f0000  ................
 f0001e40 00000007 bc570000 0000002b ab000000  .....W.....+....
 f0001e50 004cad0d 00000000 00000000 00000000  .L..............
 f0001e60 00000000 0000047a 62240000 00165800  .......zb$....X.
 f0001e70 03000000 6d777400 00000037 007c0000  ....mwt....7.|..
 f0001e80 0001796d 4e000000 00160a00 00000000  ..ymN...........
 f0001e90 00000000 0000006d 60000000 000024d1  .......m`.....$.
 f0001ea0 00000000 0000b73c 00000000 006c9e00  .......<.....l..
 f0001eb0 00000000 16d10000 00000000 00000000  ................
 f0001ec0 00354500 00000000 061f4000 00000000  .5E.......@.....
 f0001ed0 005f0000 00003331 5b000000 08598158  ._....31[....Y.X
 f0001ee0 00000000 531d2031 00000000 00000000  ....S. 1........
 f0001ef0 00000000 00000000 00341538 20000010  .........4.8 ...
 f0001f00 e923d153 000053fd e6f41000 00143560  .#.S..S.......5`
 f0001f10 dc000000 00007dcf 00000000 00402f00  ......}......@/.
 f0001f20 00000000 00000000 00252c00 39000000  .........%,.9...
 f0001f30 3f540089 1600003b 6a1cb948 00000379  ?T.....;j..H...y
 f0001f40 79ba0000 00000000 93000000 0000000f  y...............
 f0001f50 00000000 00001e00 00000000 34830000  ............4...
 f0001f60 00000b7f 01000000 0072446a 00000000  .........rDj....
 f0001f70 9605ad04 00000037 914d0000 00000000  .......7.M......
 f0001f80 00000000 00000000 0000004d 73712400  ...........Msq$.
 f0001f90 0000665d 96a00000 0014d0c5 c5690000  ..f].........i..
 f0001fa0 01290007 cb000000 6fa4b452 00000000  .)......o..R....
 f0001fb0 00000000 00000000 00000000 00000429  ...............)
 f0001fc0 5d1b0000 59b24e05 000009b7 632c0000  ]...Y.N.....c,..
 f0001fd0 000d4506 a1000000 2257855d 00000002  ..E....."W.]....
 f0001fe0 0a000000 00000000 00000000 00004f54  ..............OT
 f0001ff0 27000000 114e0505 0000000c 77505835  '....N......wPX5
 f0002000 00000000 00006000 00004948 5f260000  ......`...IH_&..
 f0002010 00000000 00000000 1b000000 000017aa  ................
 f0002020 00000000 007c470f 49390100 7e339a44  .....|G.I9..~3.D
 f0002030 54720044 9a4b8252 4600004c 83763c00  Tr.D.K.RF..L.v<.
 f0002040 00000000 00000000 00000000 00000000  ................
 f0002050 0d896c00 00000061 84702200 00009739  ..l....a.p"....9
 f0002060 4d3f0000 009c0061 21000000 877b7d00  M?.....a!....{}.
 f0002070 00000004 30000000 00000000 00000000  ....0...........
 f0002080 047b0002 4900001a a400397a 000048ac  .{..I.....9z..H.
 f0002090 5ea42e00 00165e44 ca0a0000 00000fca  ^.....^D........
 f00020a0 00000000 00001e00 00000000 00000000  ................
 f00020b0 00000021 4f000000 00004b40 00000000  ...!O.....K@....
 f00020c0 00790700 00000000 83000000 0000075f  .y............._
 f00020d0 00000000 00001600 00000000 00000000  ................
 f00020e0 00000000 10220000 00078783 a0150000  ....."..........
 f00020f0 5a7d61cd 3a000006 492ca700 00000000  Z}a.:...I,......
 f0002100 3e690000 0000005e 0d000000 00000000  >i.....^........
 f0002110 00000000 0000002e 0f00002b 77762c00  ...........+wv,.
 f0002120 00005903 00000000 00345800 00000000  ..Y......4X.....
 f0002130 23480000 00000026 02000000 00000000  #H.....&........
 f0002140 0000000f 27040000 00002b97 afc37704  ....'.....+...w.
 f0002150 00000000 04c33300 00000000 a33b0000  ......3......;..
 f0002160 00000bd7 04000000 00475b00 00000000  .........G[.....
 f0002170 00000000 00000c7d 733c0000 00964115  .......}s<....A.
 f0002180 c0000000 2ea79845 000088ab c93a0000  .......E.....:..
 f0002190 00306e60 02000000 00000000 00000000  .0n`............
 f00021a0 00000000 0000002f 55330000 00005c00  ......./U3....\.
 f00021b0 0c000000 006f0f48 00000000 23684d00  .....o.H....#hM.
 f00021c0 00000000 1f480000 0000000e 20000000  .....H...... ...
 f00021d0 00031200 00000000 11b54900 00000000  ..........I.....
 f00021e0 009c0300 00005da0 82000000 1c056647  ......].......fG
 f00021f0 00000057 7e650800 00000000 00000000  ...W~e..........
 f0002200 00000000 00000000 2f2f1e1b 09000048  ........//.....H
 f0002210 5b73a7a5 00000068 7cce4200 000017c4  [s.....h|.B.....
 f0002220 5c410000 00822b00 00000026 6c000000  \A....+....&l...
 f0002230 00000000 00000000 00000108 40000000  ............@...
 f0002240 0013535a 00000000 63915e00 00000010  ..SZ....c.^.....
 f0002250 0b610000 00000020 4a000000 00000707  .a..... J.......
 f0002260 00000000 022a0000 0000005a 21010100  .....*.....Z!...
 f0002270 0002580b 8e790000 312a6923 57000020  ..X..y..1*i#W.. 
 f0002280 567b850e 0000004a 6a390000 00000000  V{.....Jj9......
 f0002290 00000000 00000000 00000000 00001a69  ...............i
 f00022a0 00003237 00782200 00ae1316 94000000  ..27.x".........
 f00022b0 3b917f84 00000000 00316700 00000000  ;........1g.....
 f00022c0 08000000 00000000 00000000 0c97b363  ...............c
 f00022d0 00000004 287fcf00 00000097 ff7b0000  ....(........{..
 f00022e0 0000142b f3000000 007bdba3 00000000  ...+.....{......
 f00022f0 0b370400 00000000 00000000 00002169  .7............!i
 f0002300 561c0000 289c5d29 83160098 06000054  V...(.]).......T
 f0002310 3b00922f 1d51970b 000b6470 47010000  ;../.Q....dpG...
 f0002320 00000000 00000000 00000000 00000001  ................
 f0002330 03000000 397f889e aa3d0000 0000005b  ....9....=.....[
 f0002340 5b000000 0026a004 0000000d ab0e0000  [....&..........
 f0002350 00003928 00000000 00000000 00000000  ..9(............
 f0002360 60e1b236 00002eda 102fbf00 00696900  `..6...../...ii.
 f0002370 00d70000 606b0047 c7000015 cdbca829  ....`k.G.......)
 f0002380 00000000 00000000 00000000 00000000  ................
 f0002390 2acc7182 0a000000 00001963 00000000  *.q........c....
 f00023a0 00354800 002a7646 95050000 5f83b39a  .5H..*vF...._...
 f00023b0 07000000 00000000 00000000 00000000  ................
 f00023c0 00000265 73010000 0051b7d1 26000000  ...es....Q..&...
 f00023d0 0cb9d304 00000040 c4210000 0017e231  .......@.!.....1
 f00023e0 00000000 184d0000 00000000 00000000  .....M..........
 f00023f0 00000000 7f000000 000000ce 00000000  ................
 f0002400 0000ca03 00000000 00bf0300 00000002  ................
 f0002410 ae000000 0000001a 00000000 00000000  ................
 f0002420 00000000 00001d01 00006d6b 9ab60200  ..........mk....
 f0002430 00000c66 620e0000 0039bb6d 15000000  ...fb....9.m....
 f0002440 00970000 00000000 62000000 00000000  ........b.......
 f0002450 00000000 002e854a 00000000 0b573100  .......J.....W1.
 f0002460 00000032 9f3e0000 00000000 73000000  ...2.>......s...
 f0002470 026e6c70 00000000 00000000 00000000  .nlp............
 f0002480 00000000 00000a1d 01000000 5e634c85  ............^cL.
 f0002490 00000032 00077900 0000000d 7d120102  ...2..y.....}...
 f00024a0 00003a52 585e2100 00000000 00000000  ..:RX^!.........
 f00024b0 00000000 00000000 17540000 00001787  .........T......
 f00024c0 90000000 0067c785 00000000 02960000  .....g..........
 f00024d0 0000003f 63000000 00001d51 00000000  ...?c......Q....
 f00024e0 00000000 00000000 00163f18 00006bf0  ..........?...k.
 f00024f0 f6f68200 000d213c ea410000 001ee674  ......!<.A.....t
 f0002500 00000011 d78d0000 00000597 14000000  ................
 f0002510 00000000 00000000 00150611 00000000  ................
 f0002520 b0b17e00 0000009b 00980000 00000c00  ..~.............
 f0002530 9d000000 000000a8 00000000 00007600  ..............v.
 f0002540 00000000 04130000 00000eca 57000000  ............W...
 f0002550 008b3800 00000000 84139d15 00000082  ..8.............
 f0002560 82a42900 000023aa 70000000 00000000  ..)...#.p.......
 f0002570 00000000 00051d00 00000098 a8cb0900  ................
 f0002580 00000300 99150000 000010bf 0000002e  ................
 f0002590 eef2c51e 000042a9 24175e00 00000000  ......B.$.^.....
 f00025a0 00000000 00000000 00000000 17020100  ................
 f00025b0 000003aa 6caf0000 002a2000 a2000000  ....l....* .....
 f00025c0 00000086 00000000 00237800 00000000  .........#x.....
 f00025d0 2b400000 00000000 00000000 00044133  +@............A3
 f00025e0 88000018 a93f9427 00002c9d b3170000  .....?.'..,.....
 f00025f0 00004f6d 79100000 00266e80 0b000000  ..Omy....&n.....
 f0002600 00171400 00000000 00000000 000f2d00  ..............-.
 f0002610 524a0000 52a60eb4 4300006d f3f4ec08  RJ..R...C..m....
 f0002620 00001569 33ea1b00 00000047 94000000  ...i3......G....
 f0002630 00000d19 00000000 00000000 0000022b  ...............+
 f0002640 230c0000 000ba5cc f00d0000 000050b6  #.............P.
 f0002650 00000000 12d72b00 00000040 ab000000  ......+....@....
 f0002660 0000393e 00000000 00000000 00000058  ..9>...........X
 f0002670 8d890000 0000002b 9d000000 00118773  .......+.......s
 f0002680 7f370100 000017c5 30000000 08b79f00  .7......0.......
 f0002690 00000005 3b070000 00000f50 00000000  ....;......P....
 f00026a0 007b2e00 00000000 a300110b 000000ac  .{..............
 f00026b0 0aa99e00 00007eba 5e860000 00065d68  ......~.^.....]h
 f00026c0 07000000 00000000 00000000 00000000  ................
 f00026d0 00000000 93000000 00005279 00000000  ..........Ry....
 f00026e0 01da1b00 00000014 d6090000 00005185  ..............Q.
 f00026f0 00000000 00000000 00000000 00000000  ................
 f0002700 0000001c 8c8c0100 00003241 9d010000  ..........2A....
 f0002710 00187ca7 0c000017 10007426 00003c78  ..|.......t&..<x
 f0002720 6e750000 00012e13 00000000 00000c42  nu.............B
 f0002730 00000000 007c1600 00000048 3f000000  .....|.....H?...
 f0002740 00008863 910f0000 00808e85 0a000000  ...c............
 f0002750 076b5100 00000000 00000000 00000000  .kQ.............
 f0002760 00000000 00001d42 27000000 08493345  .......B'....I3E
 f0002770 00000059 5d640000 00001381 09000000  ...Y]d..........
 f0002780 00541700 00000000 1c000000 00000000  .T..............
 f0002790 00000000 00008aa2 3f000000 0053f8af  ........?....S..
 f00027a0 00000000 37cbbc00 00000001 33dc0000  ....7.......3...
 f00027b0 000ddfef 6b000000 00251f00 00000000  ....k....%......
 f00027c0 00000000 00000029 bc000000 00002fe8  .......)....../.
 f00027d0 0e000000 0007f737 00000000 07f94000  .......7......@.
 f00027e0 00000000 92890000 00000000 00000000  ................
 f00027f0 00000000 00000000 002f5f63 00000291  ........./_c....
 f0002800 65cb0a00 0074b6ae d2760000 48c4fc99  e....t...v..H...
 f0002810 09000000 00d28b00 00000000 0c070000  ................
 f0002820 00000000 00000000 00353800 00000000  .........58.....
 f0002830 15a50000 00000000 8f1f0000 00000036  ...............6
 f0002840 4b000000 00000b6d 00000000 00000f00  K......m........
 f0002850 00000000 00000000 00114d45 2d000000  ..........ME-...
 f0002860 1462de67 00000000 59e1957e 39000016  .b.g....Y..~9...
 f0002870 db2c0800 000016cc 00000000 00054200  .,............B.
 f0002880 00000000 00013000 00000004 874b3600  ......0......K6.
 f0002890 0000781d 00000000 00850000 00000003  ..x.............
 f00028a0 aa779622 00000050 8a7a0a00 00000000  .w."...P.z......
 f00028b0 00000000 00000000 00000000 387d2100  ............8}!.
 f00028c0 000028b8 52b90100 004f5e65 fa260000  ..(.R....O^e.&..
 f00028d0 08786f9f 00000000 00009c00 00000000  .xo.............
 f00028e0 00550000 0000043b 00000000 00510a00  .U.....;.....Q..
 f00028f0 00000000 5f004a2b 00000057 4d1b4800  ...._.J+...WM.H.
 f0002900 00006c56 37510000 00095646 03000000  ..lV7Q....VF....
 f0002910 00000000 00000000 00000000 00000884  ................
 f0002920 810e0000 01a63727 6c00001c 87000057  ......7'l......W
 f0002930 00003a5d 00107e00 0001976e 96160000  ..:]..~....n....
 f0002940 00001903 00000000 00000000 0000002b  ...............+
 f0002950 3358720d 005eb652 242c0200 26518b47  3Xr..^.R$,..&Q.G
 f0002960 00000000 0000a607 0000101b 81780000  .............x..
 f0002970 000a7133 00000000 00000000 00000005  ..q3............
 f0002980 0d006725 00002969 00870f00 099f7435  ..g%..)i......t5
 f0002990 b3030010 444450d1 00000000 00009800  ....DDP.........
 f00029a0 00000000 00000000 00000000 00000000  ................
 f00029b0 004a7511 00000046 72134300 00006560  .Ju....Fr.C...e`
 f00029c0 5e6e1400 00042920 43580000 00000068  ^n....) CX.....h
 f00029d0 35000000 0000261c 00000000 00000000  5.....&.........
 f00029e0 0000042b 18000000 09954474 14000034  ...+......Dt...4
 f00029f0 67359d00 0000014c 427c0000 00000001  g5.....LB|......
 f0002a00 7a000000 0000113e 00000000 00000000  z......>........
 f0002a10 00001785 83683e00 001b2400 097a0000  .....h>...$..z..
 f0002a20 00081344 81000041 985edc34 00009263  ...D...A.^.4...c
 f0002a30 62141800 00000000 00000000 00000000  b...............
 f0002a40 00000000 00008401 00000000 636f0000  ............co..
 f0002a50 000013b3 03000000 006f3400 00000000  .........o4.....
 f0002a60 65370000 00000000 00000000 00000000  e7..............
 f0002a70 00000000 000f7117 0000000a a5456600  ......q......Ef.
 f0002a80 000019b4 94a00000 0000001c 8b000000  ................
 f0002a90 00002b8b 00000000 00073100 00000000  ..+.......1.....
 f0002aa0 00000000 0000016b 1e070000 006a2171  .......k.....j!q
 f0002ab0 00000000 81037621 00000066 aa781500  ......v!...f.x..
 f0002ac0 00000071 03000000 00000000 00000000  ...q............
 f0002ad0 00000000 00000002 789d3400 00002f85  ........x.4.../.
 f0002ae0 b6110000 0025ef41 0000000f 9b298000  .....%.A.....)..
 f0002af0 00003ba9 88220000 00000000 00000000  ..;.."..........
 f0002b00 00000000 00000000 256b1e00 00000023  ........%k.....#
 f0002b10 70810000 00000091 4f000000 0004c501  p.......O.......
 f0002b20 00000000 47830000 00000012 2a000000  ....G.......*...
 f0002b30 00000000 00000000 0044772e 00000000  .........Dw.....
 f0002b40 018f2d00 00000036 96040000 00000030  ..-....6.......0
 f0002b50 82000000 002b9f3c 00000000 20170000  .....+.<.... ...
 f0002b60 00000000 00000000 00000639 13000000  ...........9....
 f0002b70 009553b0 00000000 8557a000 0000004c  ..S......W.....L
 f0002b80 7d6d0000 00000016 88000000 00000464  }m.............d
 f0002b90 00000000 00000000 00000056 47020000  ...........VG...
 f0002ba0 00003c88 45000000 00013b7e 09000000  ..<.E.....;~....
 f0002bb0 48d25001 00000000 6e000000 00000023  H.P.....n......#
 f0002bc0 00000000 00000000 00000000 00662e00  .............f..
 f0002bd0 00000041 4a300000 00008c1e 87000000  ...AJ0..........
 f0002be0 003bbd1f 00000000 00930000 00000000  .;..............
 f0002bf0 00000000 00000000 00000000 00232000  .............# .
 f0002c00 00000000 630e6600 00000063 7e920000  ....c.f....c~...
 f0002c10 0000043e 54000000 0000383a 00000000  ...>T.....8:....
 f0002c20 00020d00 00000000 00000000 00110000  ................
 f0002c30 00590000 8500002f 77000083 a080b51e  .Y...../w.......
 f0002c40 0000076c 7aa50200 00000000 8b000000  ...lz...........
 f0002c50 00000010 00000000 00000000 00000000  ................
 f0002c60 334a0000 0000413f 59000000 0072107a  3J....A?Y....r.z
 f0002c70 00000000 458e3500 00000000 74080000  ....E.5.....t...
 f0002c80 00000043 03000000 00000000 00000000  ...C............
 f0002c90 2b778a0a 000021c8 2c573700 00172308  +w....!.,W7...#.
 f0002ca0 97090000 003ee6b9 00000000 68847215  .....>......h.r.
 f0002cb0 00000000 00050400 00000000 00000000  ................
 f0002cc0 1d76a0a5 13000069 7b1c2318 000019e0  .v.....i{.#.....
 f0002cd0 db780000 00000109 cf300000 008cd7d6  .x.......0......
 f0002ce0 14000000 092b0000 00000000 00000000  .....+..........
 f0002cf0 0000017d 1b000000 00543101 71000000  ...}.....T1.q...
 f0002d00 7f078142 00000062 cc490000 0000236f  ...B...b.I....#o
 f0002d10 00000000 00000000 00000000 00000000  ................
 f0002d20 0000194b 0a000000 00014b7e 33000000  ...K......K~3...
 f0002d30 00000a7f 00000000 00107800 00000000  ..........x.....
 f0002d40 2c570000 0000001d 1e000000 00000b36  ,W.............6
 f0002d50 00000000 018c1400 00000063 32330300  ...........c23..
 f0002d60 00008161 913e0000 00866c8e 0f000000  ...a.>....l.....
 f0002d70 3e6f4009 00000000 00000000 00000000  >o@.............
 f0002d80 00000009 06000000 00002391 392a738a  ..........#.9*s.
 f0002d90 00003382 89d91b00 00000075 47000000  ..3........uG...
 f0002da0 0000ba0b 00000000 004b0000 00000000  .........K......
 f0002db0 00000000 00000281 1d000000 00632e69  .............c.i
 f0002dc0 00000000 6d5b6d00 00000061 45830000  ....m[m....aE...
 f0002dd0 00000000 7d010000 00000011 11000000  ....}...........
 f0002de0 00000000 00000072 9a100000 00803b0c  .......r......;.
 f0002df0 a41e0000 85000033 9c000078 000001b8  .......3...x....
 f0002e00 0000227a 7b864f00 00000000 00000000  .."z{.O.........
 f0002e10 00000000 00000000 00207997 02000eba  ......... y.....
 f0002e20 973e0100 0004c14d 00000000 00077460  .>.....M......t`
 f0002e30 00000000 77956a00 00000010 26000000  ....w.j.....&...
 f0002e40 00000000 00000000 084e727e 26000038  .........Nr~&..8
 f0002e50 d248c21e 00000081 f45d0000 00006f90  .H.......]....o.
 f0002e60 8e000000 00b44aad 00000000 216e2100  ......J.....!n!.
 f0002e70 00000000 00000000 00000177 62750400  ...........wbu..
 f0002e80 00734e25 03000000 7b770c00 00000000  .sN%....{w......
 f0002e90 1fa50000 000a689a 37000000 00340800  ......h.7....4..
 f0002ea0 00000000 00001d00 00000005 a3ab0000  ................
 f0002eb0 00009088 01000000 00d355ce 4a000000  ..........U.J...
 f0002ec0 cbe2c143 00000016 a0410000 00000000  ...C.....A......
 f0002ed0 00000000 0000001f 08000000 027dc73e  .............}.>
 f0002ee0 00000075 9e050000 0001ce50 a55c0000  ...u.......P.\..
 f0002ef0 03fdd4c3 52000001 8eba5c00 00000000  ....R.....\.....
 f0002f00 00000000 00000000 00000000 00479ff3  .............G..
 f0002f10 18000017 ef5b0400 00000063 cb730400  .....[.....c.s..
 f0002f20 00003300 a7970000 008fe7b3 33000000  ..3.........3...
 f0002f30 00000000 00000000 00000000 006e6047  .............n`G
 f0002f40 28020000 0d5a71d8 40000000 001ff220  (....Zq.@...... 
 f0002f50 00000dc9 ee9d0a00 00000ba3 33000000  ............3...
 f0002f60 00001a02 00000000 00000000 00000029  ...............)
 f0002f70 50763900 00007e84 672b0000 0009d55b  Pv9...~.g+.....[
 f0002f80 00000000 78735600 0000008d 6c6a0000  ....xsV.....lj..
 f0002f90 0000133a 01000000 00000000 00000000  ...:............
 f0002fa0 00993600 00000000 ac2e0000 000000d9  ..6.............
 f0002fb0 0d000000 0000e700 00000000 00db0000  ................
 f0002fc0 00000000 00000000 00000000 00000000  ................
 f0002fd0 004f9084 00000000 8914691c 00000095  .O........i.....
 f0002fe0 003d2e00 00008b00 790c0000 007ca072  .=......y....|.r
 f0002ff0 00000000 00000000 00000000 00000000  ................
 f0003000 0000001d 92000000 00008e85 00000000  ................
 f0003010 06f02500 0000004b c0010000 0000ae56  ..%....K.......V
 f0003020 00000000 00000000 00000000 221c0000  ............"...
 f0003030 00000075 3a000000 00009f0a 1f160000  ...u:...........
 f0003040 00ad3f95 9e000000 95797877 00000043  ..?......yxw...C
 f0003050 7e330000 00000000 00000000 00000000  ~3..............
 f0003060 00000000 0a3f003e 0200007d 2a3c8800  .....?.>...}*<..
 f0003070 000b6438 bf0b0000 07a9f63f 00000000  ..d8.......?....
 f0003080 2d900000 0000001f 11000000 00000001  -...............
 f0003090 1a000000 00006227 00000000 12700000  ......b'.....p..
 f00030a0 00000069 27330000 00006f57 4c000000  ...i'3....oWL...
 f00030b0 0019704a 00000000 00000000 00000000  ..pJ............
 f00030c0 00000000 00000000 00000046 6e6e7da8  ...........Fnn}.
 f00030d0 26000000 00008c00 00000000 007b0000  &............{..
 f00030e0 00000000 89000000 00000095 00000000  ................
 f00030f0 00000000 0000357f 80230000 00470003  ......5..#...G..
 f0003100 88000000 00002990 00000000 00645c5b  ......)......d\[
 f0003110 00000426 406f3f00 0001352c 03000000  ...&@o?...5,....
 f0003120 00000000 00000000 005c1900 00000000  .........\......
 f0003130 75170000 0000008e 06000000 00029a00  u...............
 f0003140 00000000 1d7d0000 00000000 00000000  .....}..........
 f0003150 00000000 00000000 00042c2b 00000000  ..........,+....
 f0003160 8e86a500 00000030 4dac0900 000070cd  .......0M.....p.
 f0003170 64180000 00524b00 00000000 5f000000  d....RK....._...
 f0003180 00000000 00000000 0000046d 00000000  ...........m....
 f0003190 00039c00 00000000 008a0000 00000000  ................
 f00031a0 82040000 00000071 0f000000 00000000  .......q........
 f00031b0 00000000 00000000 0000000f 886f1800  .............o..
 f00031c0 0000a040 8c760000 00b69067 00000000  ...@.v.....g....
 f00031d0 67c42600 00000065 8b6d0000 00000035  g.&....e.m.....5
 f00031e0 03000000 0000212b 00000000 5b82b43c  ......!+....[..<
 f00031f0 0000003b 007a5800 002e7a58 cb180000  ...;.zX...zX....
 f0003200 c282f0ba 00000069 7b18920c 00000000  .......i{.......
 f0003210 00000000 00000000 00000000 00008f85  ................
 f0003220 00000000 4b4a5130 00000091 011a5c00  ....KJQ0......\.
 f0003230 00019500 523b0000 00839972 00000000  ....R;.....r....
 f0003240 00000000 00000000 00000000 00000655  ...............U
 f0003250 02000000 00132a4a 00000031 4ba15e00  ......*J...1K.^.
 f0003260 00002b70 2e2f4b00 00000000 00393500  ..+p./K......95.
 f0003270 00000000 00000000 00000000 00000017  ................
 f0003280 80690000 00048906 45050000 23955dcf  .i......E...#.].
 f0003290 05000000 372ca200 00000000 1d9a0000  ....7,..........
 f00032a0 00000008 23000000 00000000 00000008  ....#...........
 f00032b0 82a16c00 00006f35 31b30000 0050522a  ..l...o51....PR*
 f00032c0 af190000 00445106 5a000000 007a658a  .....DQ.Z....ze.
 f00032d0 00000000 0f3e1000 00000000 00000000  .....>..........
 f00032e0 00001b31 2b1c0000 45733543 2e00009f  ...1+...Es5C....
 f00032f0 37000000 00186773 04000000 19528c00  7.....gs.....R..
 f0003300 00000000 22070000 00000000 00000000  ...."...........
 f0003310 0000239f 550a0000 00782e10 00000000  ..#.U....x......
 f0003320 1e764a00 0000112c 006f0000 00057166  .vJ....,.o....qf
 f0003330 7a000000 00000000 00000000 00000000  z...............
 f0003340 00000000 64000000 00000074 00000000  ....d......t....
 f0003350 00006b1a 00000000 00801200 00000000  ..k.............
 f0003360 76000000 00000000 00000000 00000000  v...............
 f0003370 00000000 0013b2af 0100039b 65270000  ............e'..
 f0003380 002fcab8 4a000000 000063a9 0000003b  ./..J.....c....;
 f0003390 b5b21900 00000000 00000000 00005800  ..............X.
 f00033a0 00000000 00860000 00000000 95000000  ................
 f00033b0 0000008b 02746b00 00007a7c a5560000  .....tk...z|.V..
 f00033c0 00022f27 00000000 00000000 00000000  ../'............
 f00033d0 00000000 000014a3 43000000 0085396b  ........C.....9k
 f00033e0 15000000 8b003f44 00000088 00792500  ......?D.....y%.
 f00033f0 00002c95 85000000 00000000 00000000  ..,.............
 f0003400 00000000 000073af 7a000000 00000093  ......s.z.......
 f0003410 58000000 00000070 10000000 23005e28  X......p....#.^(
 f0003420 0000007e cfb00100 00000000 00000000  ...~............
 f0003430 00000000 00000000 00371600 00000015  .........7......
 f0003440 ad0c0000 00007747 2c000000 00508169  ......wG,....P.i
 f0003450 00000000 00491e00 00000000 0f020000  .....I..........
 f0003460 00000000 00000000 008e0000 00000000  ................
 f0003470 c606b90f 000000ab 747e0000 00001dc6  ........t~......
 f0003480 3f000000 00005da7 1c000000 00000000  ?.....].........
 f0003490 00000000 00262b00 00000039 69040000  .....&+....9i...
 f00034a0 003a6400 00000014 8a377050 000045bb  .:d......7pP..E.
 f00034b0 205e8800 00056868 35000000 00000000   ^....hh5.......
 f00034c0 00000000 00000000 0000005e 9398ac12  ...........^....
 f00034d0 0000cb50 3c1c0000 008ea123 0000000a  ...P<......#....
 f00034e0 060ec200 00001dbe a6c00000 0000153d  ...............=
 f00034f0 05000000 00000000 0000002a 17002d0b  ...........*..-.
 f0003500 00009a29 00ac2e00 00be756d e12d0000  ...)......um.-..
 f0003510 0a5066d4 13000000 001aa400 00000000  .Pf.............
 f0003520 0c340000 00002200 00000000 00820000  .4....".........
 f0003530 00000000 73003518 00000081 367c6f00  ....s.5.....6|o.
 f0003540 00005cd4 8b2a0000 00058302 00000000  ..\..*..........
 f0003550 00000000 00000000 00000000 00009bb7  ................
 f0003560 7b000000 06a91103 00000007 999aaa3e  {..............>
 f0003570 00000029 00228700 0000989e a1350000  ...).".......5..
 f0003580 00000000 00000000 00000000 00000003  ................
 f0003590 69252e00 00003c3c 7a090000 007706a9  i%....<<z....w..
 f00035a0 27000014 a7797800 00000000 34410000  '....yx.....4A..
 f00035b0 00000009 0e000000 00000000 00000000  ................
 f00035c0 00000000 00000000 525d6a2c 00159198  ........R]j,....
 f00035d0 73010000 0f36666e 00000024 32130000  s....6fn...$2...
 f00035e0 00000000 00000000 00000000 00000000  ................
 f00035f0 00009600 00000000 00bf0000 00000000  ................
 f0003600 9a000000 000000b9 07000000 0000a825  ...............%
 f0003610 00000000 00000000 00000000 00000000  ................
 f0003620 00002800 45000000 00740081 00000000  ..(.E....t......
 f0003630 c67fb900 00000010 237e0000 00000048  ........#~.....H
 f0003640 54000000 0000100d 00000000 00000000  T...............
 f0003650 0000001c 06490000 0000920c 6b000000  .....I......k...
 f0003660 009b5b74 00000000 0d2e7100 00000000  ..[t......q.....
 f0003670 00780000 00000000 1e000000 00000000  .x..............
 f0003680 00000000 32602f01 00000032 c0f07700  ....2`/....2..w.
 f0003690 0000005e ea260000 0061f946 00000050  ...^.&...a.F...P
 f00036a0 e74c0000 00002b37 00000000 00000000  .L....+7........
 f00036b0 00000000 0189a9c7 70000000 052ea40c  ........p.......
 f00036c0 00000036 94050000 00349c02 003c2a00  ...6.....4...<*.
 f00036d0 58aa9e7e 36000000 00000000 00000000  X..~6...........
 f00036e0 00000000 001c5461 31000000 0008587c  ......Ta1.....X|
 f00036f0 01000000 72402359 00000227 00045c00  ....r@#Y...'..\.
 f0003700 00046035 6e0f0000 000d1b00 00000000  ..`5n...........
 f0003710 00000000 0000004f a5620000 00002400  .......O.b....$.
 f0003720 7d000000 00071a79 00000002 9fd83b00  }......y......;.
 f0003730 000002a5 48910100 00000000 00000000  ....H...........
 f0003740 00000000 00000000 10432200 0000000e  .........C".....
 f0003750 0f420000 0000003c 1d000000 00004600  .B.....<......F.
 f0003760 00000000 004f0000 00000000 38000000  .....O......8...
 f0003770 00000000 00000000 00004e00 00000000  ..........N.....
 f0003780 00740000 00000000 64000000 00000063  .t......d......c
 f0003790 00000000 00005900 00000000 00000000  ......Y.........
 f00037a0 00000000 00000000 00000593 64000000  ............d...
 f00037b0 005a3b72 00000000 8577a100 00000036  .Z;r.....w.....6
 f00037c0 85800100 0000507f 75000000 00043200  ......P.u.....2.
 f00037d0 00000000 00000000 00000000 58360000  ............X6..
 f00037e0 00000080 2a000000 0000a304 00000000  ....*...........
 f00037f0 00b50000 00000000 aa000000 00000000  ................
 f0003800 00000000 00000000 00000000 4ea59800  ............N...
 f0003810 000001d0 53880000 000011e1 3b000000  ....S.......;...
 f0003820 007f7876 00000000 b4b4b400 00000000  ..xv............
 f0003830 00000000 00000000 00000000 00005c14  ..............\.
 f0003840 00000000 007f1b00 00000000 900d0000  ................
 f0003850 00000091 00000000 00009800 00000000  ................
 f0003860 001e0000 00000000 00000000 000065b6  ..............e.
 f0003870 8f000000 00874b72 0d000000 19de8e00  ......Kr........
 f0003880 00000066 6f7a0c00 000034bb b00b0000  ...foz....4.....
 f0003890 00000000 00000000 00000000 00000000  ................
 f00038a0 2f821c00 00003eae 0c000000 004b4c00  /.....>......KL.
 f00038b0 00000000 027f5600 0000000d 60810000  ......V.....`...
 f00038c0 00000337 01000000 00000000 00000000  ...7............
 f00038d0 7bb37f47 000037a7 0004bb00 00ab1f00  {..G..7.........
 f00038e0 00a31400 b308048b 7b000053 cbc74f00  ........{..S..O.
 f00038f0 00000000 00000000 00000000 00000000  ................
 f0003900 00154893 02000000 40459e03 00000016  ..H.....@E......
 f0003910 ba9a0000 0000880f 8d000000 007ca03f  .............|.?
 f0003920 00000000 00000000 00000000 00000000  ................
 f0003930 0000005f 56000000 006b4c3c 0c000023  ..._V....kL<...#
 f0003940 713cdd08 00000b80 80810000 00000058  q<.............X
 f0003950 1b000000 00001208 00000000 00000000  ................
 f0003960 00000cdb f4960000 00013957 bf000000  ..........9W....
 f0003970 0010d139 00000000 b5975580 000000f2  ...9......U.....
 f0003980 ef841600 00000000 00000000 00000000  ................
 f0003990 00000000 68b07e01 00000074 0c2a0800  ....h.~....t.*..
 f00039a0 000084a5 93100000 00000005 5c00000d  ............\...
 f00039b0 98829548 00000000 2d080000 00000000  ...H....-.......
 f00039c0 00000000 000b9d53 17000000 85ab7db4  .......S......}.
 f00039d0 1e0005cb 04009a27 004f8100 59730000  .......'.O..Ys..
 f00039e0 40c0a374 00000000 311e0000 00000000  @..t....1.......
 f00039f0 00000000 00000061 00000000 00007300  .......a......s.
 f0003a00 00000000 00740000 00000000 49330000  .....t......I3..
 f0003a10 0000000a 69000000 00000000 00000000  ....i...........
 f0003a20 00000000 00000000 098e0000 00000072  ...............r
 f0003a30 cb000000 0000ca64 00000000 46e70900  .......d....F...
 f0003a40 00000057 92000000 00000017 00000000  ...W............
 f0003a50 00000000 00000000 651e0000 0000001e  ........e.......
 f0003a60 94000000 000000a9 10000000 00005b45  ..............[E
 f0003a70 00000000 001b7700 00000000 00000000  ......w.........
 f0003a80 00000000 00000000 000025bd 80000000  ..........%.....
 f0003a90 23970b8c 00000bab 0b246c00 00892b38  #........$l...+8
 f0003aa0 89060000 a5a76805 00000000 00000000  ......h.........
 f0003ab0 00000000 00000000 000d6946 00000000  ..........iF....
 f0003ac0 65312842 00000007 70918800 00000000  e1(B....p.......
 f0003ad0 25a30000 0000001c ae000000 00000b38  %..............8
 f0003ae0 00000000 00000000 0000005d b3500000  ...........].P..
 f0003af0 0000b72c 78390000 02a0002c 7c000017  ...,x9.....,|...
 f0003b00 4d00743b 000011ac 8c7b0000 00002b19  M.t;.....{....+.
 f0003b10 00000000 00000000 0000000a 51280000  ............Q(..
 f0003b20 00002104 5b000000 00000e79 03000000  ..!.[......y....
 f0003b30 0011335e 0a000000 00001141 00000000  ..3^.......A....
 f0003b40 00280b00 00000000 00000000 0000a70a  .(..............
 f0003b50 00000000 00e61500 00000009 f6020000  ................
 f0003b60 000016f8 00000000 000ed400 00000000  ................
 f0003b70 00000000 00000000 001b0b00 0000004f  ...............O
 f0003b80 c31f0000 0027cb0f 00000000 b7974b00  .....'........K.
 f0003b90 000000d7 c7b70000 00005fab 1b000000  .........._.....
 f0003ba0 00000000 00000000 00000000 0000001a  ................
 f0003bb0 28100b00 00008416 86060000 00934299  (.............B.
 f0003bc0 00000000 0b547a00 00000000 3e510000  .....Tz.....>Q..
 f0003bd0 0000002e 11000000 00000000 00000000  ................
 f0003be0 4be5d10e 00000036 2dd04100 00000073  K......6-.A....s
 f0003bf0 c9020000 0a7efbd1 0900004b eb965300  .....~.....K..S.
 f0003c00 00000000 00000000 07020100 04010409  ................
 f0003c10 05090006 09000105 09070304 09060605  ................
 f0003c20 04000704 00010301 03040702 07010201  ................
 f0003c30 01070402 03050102 04040603 05050600  ................
 f0003c40 04010905 07080903 07040604 03000700  ................
 f0003c50 02090107 03020907 07060207 08040703  ................
 f0003c60 06010306 09030104 01070609 06000504  ................
 f0003c70 09090201 09040807 03090704 04040902  ................
 f0003c80 05040706 07090005 08050606 05070801  ................
 f0003c90 00010604 06070301 07010802 00020909  ................
 f0003ca0 05050105 06000304 04060504 06050405  ................
 f0003cb0 01040407 02030207 01080108 01080500  ................
 f0003cc0 08090205 00010101 00090003 01060402  ................
 f0003cd0 9fcbffff 01e00000 33a00000 9d1a0000  ........3.......
 f0003ce0 bec00000 8d6d0200 4d630000 55600100  .....m..Mc..U`..
 f0003cf0 ada8feff 2aeaffff 8a3b0000 ad840000  ....*....;......
 f0003d00 1c1dffff f9ecfdff c18efcff db13ffff  ................
 f0003d10 9c050000 a7270000 312effff 1f9affff  .....'..1.......
 f0003d20 73ba0300 41c70500 185f0100 7e8afeff  s...A...._..~...
 f0003d30 b2330000 0e63ffff d8b60000 035b0200  .3...c.......[..
 f0003d40 6d090500 e22f0600 880a0000 95dfffff  m..../..........
 f0003d50 30980500 39920600 e537edff 7516f7ff  0...9....7..u...
 f0003d60 97070400 e9810600 1664ffff f6ec0600  .........d......
 f0003d70 54e30900 91e1f0ff 353c0000 07fa0300  T.......5<......
 f0003d80 bbc40000 ec97ffff 07d80100 11600600  .............`..
 f0003d90 7c460500 bd6afcff 5b3effff 98daffff  |F...j..[>......
 f0003da0 5df60000 aea5ffff bb5ffdff ac1d0000  ]........_......
 f0003db0 9b30fdff a018ffff 7a530000 82500000  .0......zS...P..
 f0003dc0 3e620000 9d87ffff 1c190200 ccc1ffff  >b..............
 f0003dd0 1eabffff 945d0000 e5df0000 5b37ffff  .....]......[7..
 f0003de0 45f4fbff aff4fdff 83cafcff e1590200  E............Y..
 f0003df0 3688fdff 579e0000 5c20feff f9f1f7ff  6...W...\ ......
 f0003e00 fc920300 61560300 cbe7efff ccb6fdff  ....aV..........
 f0003e10 d26d0000 3a190100 38a6f2ff 0f691000  .m..:...8....i..
 f0003e20 ea85fbff 7964fcff 6b160000 c60d0000  ....yd..k.......
 f0003e30 5513faff b1cbfeff c83c0800 8d64f8ff  U........<...d..
 f0003e40 93ed0000 7be70000 dba30000 fd090700  ....{...........
 f0003e50 c9680200 e8e6fbff 3a920800 32200100  .h......:...2 ..
 f0003e60 f16a0000 6cee0000 9cd4feff acddf3ff  .j..l...........
 f0003e70 eca6f6ff d7dffeff c5ab0000 e4a30000  ................
 f0003e80 5eb70000 b97b0000 52570400 d0680700  ^....{..RW...h..
 f0003e90 7bd10000 46f8fdff 62260000 2a090100  {...F...b&..*...
 f0003ea0 a6550300 92bb0300 95650400 e09f0100  .U.......e......
 f0003eb0 2bfaf9ff b0e3fcff 31000100 90b40000  +.......1.......
 f0003ec0 4782faff f54ff8ff 560afdff 9775feff  G....O..V....u..
 f0003ed0 ca12fdff 7c3a0000 3abfefff 7cd3f7ff  ....|:..:...|...
 f0003ee0 d394fdff e0bdfdff d0b9fbff f7c70300  ................
 f0003ef0 fc4b0100 76ba0e00 ea6b0b00 d2d90c00  .K..v....k......
 f0003f00 f8ae0200 61220600 bd0c0e00 f71b0100  ....a"..........
 f0003f10 eb6f0900 94470800 44adffff 21f80500  .o...G..D...!...
 f0003f20 6c380c00 2f480500 07980000 c996feff  l8../H..........
 f0003f30 af5bf7ff fedcf8ff 8067fdff c386feff  .[.......g......
 f0003f40 69c50000 622a0000 bfec0000 98950100  i...b*..........
 f0003f50 e6ec0300 94260400 bb960000 33480000  .....&......3H..
 f0003f60 37830100 eb080800 b59b0900 73010400  7...........s...
 f0003f70 e9500100 356efcff ec14feff c45f0200  .P..5n......._..
 f0003f80 5e7f0300 99d3f4ff 11680300 0d7e0700  ^........h...~..
 f0003f90 be170200 0ecdfcff 5df30000 0453f3ff  ........]....S..
 f0003fa0 e155f9ff bce90500 c3850100 8c41fdff  .U...........A..
 f0003fb0 2135ffff 2d6e0500 b84d0500 b51ef3ff  !5..-n...M......
 f0003fc0 e7c7f5ff 2d660500 8e8a0c00 fda8fdff  ....-f..........
 f0003fd0 13d20300 cccc0a00 3bc8ffff 001e0000  ........;.......
 f0003fe0 85120500 ecf2faff 15c9ffff 24070100  ............$...
 f0003ff0 2c0d0600 1e410a00 73420800 b6b8ffff  ,....A..sB......
 f0004000 86de0000 d1aa0000 4ee80000 cbe0ffff  ........N.......
 f0004010 3aaff9ff fa00f6ff 8128fcff d110ffff  :........(......
 f0004020 55cf0000 61580000 34940200 597bf9ff  U...aX..4...Y{..
 f0004030 0138f3ff eb39f8ff d8e10700 5a2c0300  .8...9......Z,..
 f0004040 1245ffff 5c95faff de930000 80f8f7ff  .E..\...........
 f0004050 92e8ffff f826faff 438cfcff 69cefeff  .....&..C...i...
 f0004060 52aa0d00 d6b01000 17f80200 1d8f0a00  R...............
 f0004070 3ce30300 f2fffdff d9f8fdff 6bf5fcff  <...........k...
 f0004080 13ddffff 77790700 4c530300 14e5faff  ....wy..LS......
 f0004090 4df3feff dffcffff c3baf3ff 2c16f6ff  M...........,...
 f00040a0 9b46feff e66f0100 06b70100 af08ffff  .F...o..........
 f00040b0 264c0000 1647ffff 900cfcff 15edf5ff  &L...G..........
 f00040c0 6ed7f5ff 4865feff 58840000 96cd0000  n...He..X.......
 f00040d0 3f270000 fa42ffff 5d11ffff 4c010100  ?'...B..]...L...
 f00040e0 8e5a0000 63980000 329fffff 1db6fbff  .Z..c...2.......
 f00040f0 69e30100 06f60000 30dd0200 73810a00  i.......0...s...
 f0004100 990a0f00 b9d2ffff e603feff 12a50700  ................
 f0004110 a45a0500 2168f8ff 2ec60000 09451900  .Z..!h.......E..
 f0004120 7cc70000 df60feff bd550b00 01fbfdff  |....`...U......
 f0004130 d6b6f8ff cf79f4ff 89e3f9ff 6ec10000  .....y......n...
 f0004140 be3b0800 d076f8ff 3d31f6ff 3c300000  .;...v..=1..<0..
 f0004150 a38c0600 9fd30000 30270000 3d6d0200  ........0'..=m..
 f0004160 d66b0900 2c8d0400 4cba0200 a35c0700  .k..,...L....\..
 f0004170 018c0100 62eb0000 e9daffff b3580400  ....b........X..
 f0004180 030e0800 4a4b0000 84160100 341f0000  ....JK......4...
 f0004190 c45a0000 57de0100 478f0700 62d80c00  .Z..W...G...b...
 f00041a0 f97c0f00 71bd0700 bcf90000 03fdffff  .|..q...........
 f00041b0 caa7feff 4debfcff 264cf7ff f183faff  ....M...&L......
 f00041c0 db4afdff 5bacfeff 1e3c0000 36cffbff  .J..[....<..6...
 f00041d0 44acfcff e95cf9ff 696eeeff 0febf6ff  D....\..in......
 f00041e0 581ffdff f2340000 68fa0700 5e5e0700  X....4..h...^^..
 f00041f0 718e0200 2f0dfdff b28d0900 cf950300  q.../...........
 f0004200 4d2dffff 095a0200 450b0d00 c1a80700  M-...Z..E.......
 f0004210 67740600 eff80600 61f3fcff 4bb80000  gt......a...K...
 f0004220 2738fdff ea320600 9ae90d00 076a0500  '8...2.......j..
 f0004230 f099fcff 97fcffff 34080000 25a0ffff  ........4...%...
 f0004240 fa37fbff 68e8f3ff 5f02fcff b6100000  .7..h..._.......
 f0004250 3e7e0000 024c0000 5d3e0000 623c0000  >~...L..]>..b<..
 f0004260 48200000 eca1ffff 2fbe0000 b9360000  H ....../....6..
 f0004270 c9cf0000 7ede0400 632a0800 8e84ffff  ....~...c*......
 f0004280 327d0000 15e1ffff f4e8ffff f3350300  2}...........5..
 f0004290 9a6a0500 c3dc0700 7d420a00 12110f00  .j......}B......
 f00042a0 6a030600 8aa1fdff caaf0300 5cea0300  j...........\...
 f00042b0 7c70f6ff 3ba1f5ff aa140800 64d70600  |p..;.......d...
 f00042c0 f5370000 5cf1ffff 6980f8ff 5eedf3ff  .7..\...i...^...
 f00042d0 47e10100 f69e0000 487ffaff f27bffff  G.......H....{..
 f00042e0 587b0000 4ceffcff 0590fbff 0258faff  X{..L........X..
 f00042f0 fb05f5ff f88cf4ff 33320000 2eda0000  ........32......
 f0004300 b4df0500 f0d00800 d6340900 45460a00  .........4..EF..
 f0004310 4a13feff 54020000 4efe0000 34bc0000  J...T...N...4...
 f0004320 70b4feff 0d43faff 3cfaf9ff 2a3fffff  p....C..<...*?..
 f0004330 6eba0000 49deffff 249afdff 97440100  n...I...$....D..
 f0004340 01200400 92720300 f3340200 f859ffff  . ...r...4...Y..
 f0004350 e759ffff 4a300900 b5610900 acc6fdff  .Y..J0...a......
 f0004360 eeb80000 16f20f00 59230100 02e7ffff  ........Y#......
 f0004370 3361faff 3a27feff 05a60a00 3878fdff  3a..:'......8x..
 f0004380 81b6feff 1f380200 7361ffff 5654f7ff  .....8..sa..VT..
 f0004390 e2da0700 7ddb0000 29fff9ff 2eabf6ff  ....}...).......
 f00043a0 e9a9fdff e33dffff 6c44fdff 9d730000  .....=..lD...s..
 f00043b0 19d50300 1e590300 a1540300 2da8fdff  .....Y...T..-...
 f00043c0 b0400000 e8c9f8ff 879fffff fc1d0800  .@..............
 f00043d0 4a850300 e6730000 dea20000 a88f0000  J....s..........
 f00043e0 3d2c0000 07460000 f8a9fdff 5276feff  =,...F......Rv..
 f00043f0 321d0000 86600000 7ef8ffff 572dfbff  2....`..~...W-..
 f0004400 759efbff c4660a00 212d0500 c5e1f7ff  u....f..!-......
 f0004410 a280fdff 39f4fdff 0852feff dabf0600  ....9....R......
 f0004420 5c820400 a1060300 6a050600 7464fbff  \.......j...td..
 f0004430 1c5dffff f1b00a00 27a80300 772d0000  .]......'...w-..
 f0004440 35820b00 772f0300 3f8bfcff 724c0000  5...w/..?...rL..
 f0004450 693ff9ff 8501feff 5987ffff 0743feff  i?......Y....C..
 f0004460 e50ff3ff 4cbbfeff 972b0000 267ef9ff  ....L....+..&~..
 f0004470 343af3ff ff3ef5ff 21a7f1ff 61e9ffff  4:...>..!...a...
 f0004480 cc7e0100 d5cb0000 17f00400 81f60d00  .~..............
 f0004490 c2950800 364d0b00 051f0900 9a2e0000  ....6M..........
Contents of section .comment:
 0000 4743433a 2028474e 55292031 302e322e  GCC: (GNU) 10.2.
 0010 3000                                 0.              
Contents of section .riscv.attributes:
 0000 41240000 00726973 63760001 1a000000  A$...riscv......
 0010 04100572 76333269 3270305f 6d327030  ...rv32i2p0_m2p0
 0020 0008010a 0b                          .....           

Disassembly of section .text.crt:

f0000000 <_start>:
f0000000:	000022b7          	lui	t0,0x2
f0000004:	88028293          	addi	t0,t0,-1920 # 1880 <STACK_SIZE+0x1080>
f0000008:	30029073          	csrw	mstatus,t0
f000000c:	30401073          	csrw	mie,zero
f0000010:	34401073          	csrw	mip,zero
f0000014:	00002197          	auipc	gp,0x2
f0000018:	c4018193          	addi	gp,gp,-960 # f0001c54 <__global_pointer$>
f000001c:	00004297          	auipc	t0,0x4
f0000020:	48428293          	addi	t0,t0,1156 # f00044a0 <max_inf_time_h>
f0000024:	00004317          	auipc	t1,0x4
f0000028:	48430313          	addi	t1,t1,1156 # f00044a8 <__BSS_END__>
f000002c:	00c0006f          	j	f0000038 <_start+0x38>
f0000030:	0002a023          	sw	zero,0(t0)
f0000034:	00428293          	addi	t0,t0,4
f0000038:	fe62ece3          	bltu	t0,t1,f0000030 <_start+0x30>
f000003c:	00010117          	auipc	sp,0x10
f0000040:	fc410113          	addi	sp,sp,-60 # f0010000 <__C_STACK_TOP__>
f0000044:	30102573          	csrr	a0,misa
f0000048:	01a51593          	slli	a1,a0,0x1a
f000004c:	0005d863          	bgez	a1,f000005c <_start+0x5c>
f0000050:	00002537          	lui	a0,0x2
f0000054:	30052073          	csrs	mstatus,a0
f0000058:	00301073          	fscsr	zero
f000005c:	2a10006f          	j	f0000afc <c_start>

Disassembly of section .text:

f0000060 <vfprintf>:
f0000060:	fa010113          	addi	sp,sp,-96
f0000064:	04812c23          	sw	s0,88(sp)
f0000068:	04112e23          	sw	ra,92(sp)
f000006c:	04912a23          	sw	s1,84(sp)
f0000070:	05212823          	sw	s2,80(sp)
f0000074:	05312623          	sw	s3,76(sp)
f0000078:	05412423          	sw	s4,72(sp)
f000007c:	05512223          	sw	s5,68(sp)
f0000080:	05612023          	sw	s6,64(sp)
f0000084:	03712e23          	sw	s7,60(sp)
f0000088:	03812c23          	sw	s8,56(sp)
f000008c:	03912a23          	sw	s9,52(sp)
f0000090:	03a12823          	sw	s10,48(sp)
f0000094:	03b12623          	sw	s11,44(sp)
f0000098:	00052023          	sw	zero,0(a0) # 2000 <STACK_SIZE+0x1800>
f000009c:	00050413          	mv	s0,a0
f00000a0:	0005c503          	lbu	a0,0(a1)
f00000a4:	72050e63          	beqz	a0,f00007e0 <vfprintf+0x780>
f00000a8:	f0001ab7          	lui	s5,0xf0001
f00000ac:	00058c93          	mv	s9,a1
f00000b0:	00060993          	mv	s3,a2
f00000b4:	00158913          	addi	s2,a1,1
f00000b8:	00900a13          	li	s4,9
f00000bc:	02e00b93          	li	s7,46
f00000c0:	454a8a93          	addi	s5,s5,1108 # f0001454 <__C_STACK_TOP__+0xffff1454>
f00000c4:	01410b13          	addi	s6,sp,20
f00000c8:	0400006f          	j	f0000108 <vfprintf+0xa8>
f00000cc:	00842703          	lw	a4,8(s0)
f00000d0:	3e070463          	beqz	a4,f00004b8 <vfprintf+0x458>
f00000d4:	00042783          	lw	a5,0(s0)
f00000d8:	00442683          	lw	a3,4(s0)
f00000dc:	00d7da63          	bge	a5,a3,f00000f0 <vfprintf+0x90>
f00000e0:	00170793          	addi	a5,a4,1
f00000e4:	00f42423          	sw	a5,8(s0)
f00000e8:	00a70023          	sb	a0,0(a4)
f00000ec:	00042783          	lw	a5,0(s0)
f00000f0:	00178793          	addi	a5,a5,1
f00000f4:	00f42023          	sw	a5,0(s0)
f00000f8:	00090c93          	mv	s9,s2
f00000fc:	000cc503          	lbu	a0,0(s9)
f0000100:	00190913          	addi	s2,s2,1
f0000104:	3c050c63          	beqz	a0,f00004dc <vfprintf+0x47c>
f0000108:	02500793          	li	a5,37
f000010c:	fcf510e3          	bne	a0,a5,f00000cc <vfprintf+0x6c>
f0000110:	001cc503          	lbu	a0,1(s9)
f0000114:	002c8913          	addi	s2,s9,2
f0000118:	faf50ae3          	beq	a0,a5,f00000cc <vfprintf+0x6c>
f000011c:	00000d13          	li	s10,0
f0000120:	00000493          	li	s1,0
f0000124:	00000c13          	li	s8,0
f0000128:	01f00713          	li	a4,31
f000012c:	06c00593          	li	a1,108
f0000130:	06800813          	li	a6,104
f0000134:	01000613          	li	a2,16
f0000138:	03876063          	bltu	a4,s8,f0000158 <vfprintf+0xf8>
f000013c:	fe050793          	addi	a5,a0,-32
f0000140:	0ff7f793          	andi	a5,a5,255
f0000144:	00f66a63          	bltu	a2,a5,f0000158 <vfprintf+0xf8>
f0000148:	00279793          	slli	a5,a5,0x2
f000014c:	015787b3          	add	a5,a5,s5
f0000150:	0007a783          	lw	a5,0(a5)
f0000154:	00078067          	jr	a5
f0000158:	018c1793          	slli	a5,s8,0x18
f000015c:	4187d793          	srai	a5,a5,0x18
f0000160:	2807c463          	bltz	a5,f00003e8 <vfprintf+0x388>
f0000164:	fd050793          	addi	a5,a0,-48
f0000168:	0ff7f793          	andi	a5,a5,255
f000016c:	26fa6863          	bltu	s4,a5,f00003dc <vfprintf+0x37c>
f0000170:	040c7693          	andi	a3,s8,64
f0000174:	32068463          	beqz	a3,f000049c <vfprintf+0x43c>
f0000178:	002d1693          	slli	a3,s10,0x2
f000017c:	00dd0d33          	add	s10,s10,a3
f0000180:	001d1d13          	slli	s10,s10,0x1
f0000184:	00fd07b3          	add	a5,s10,a5
f0000188:	0ff7fd13          	andi	s10,a5,255
f000018c:	00094503          	lbu	a0,0(s2)
f0000190:	00190913          	addi	s2,s2,1
f0000194:	fa0512e3          	bnez	a0,f0000138 <vfprintf+0xd8>
f0000198:	0f9c7813          	andi	a6,s8,249
f000019c:	00090c93          	mv	s9,s2
f00001a0:	07000793          	li	a5,112
f00001a4:	32a7e863          	bltu	a5,a0,f00004d4 <vfprintf+0x474>
f00001a8:	05800793          	li	a5,88
f00001ac:	5af50863          	beq	a0,a5,f000075c <vfprintf+0x6fc>
f00001b0:	06f00793          	li	a5,111
f00001b4:	32f51463          	bne	a0,a5,f00004dc <vfprintf+0x47c>
f00001b8:	00800593          	li	a1,8
f00001bc:	00000793          	li	a5,0
f00001c0:	0017b793          	seqz	a5,a5
f00001c4:	00579513          	slli	a0,a5,0x5
f00001c8:	0009a703          	lw	a4,0(s3)
f00001cc:	00750513          	addi	a0,a0,7
f00001d0:	00498993          	addi	s3,s3,4
f00001d4:	000b0693          	mv	a3,s6
f00001d8:	0080006f          	j	f00001e0 <vfprintf+0x180>
f00001dc:	00078713          	mv	a4,a5
f00001e0:	02b777b3          	remu	a5,a4,a1
f00001e4:	00fa7463          	bgeu	s4,a5,f00001ec <vfprintf+0x18c>
f00001e8:	00a787b3          	add	a5,a5,a0
f00001ec:	03078793          	addi	a5,a5,48
f00001f0:	00f68023          	sb	a5,0(a3)
f00001f4:	00168693          	addi	a3,a3,1
f00001f8:	02b757b3          	divu	a5,a4,a1
f00001fc:	feb770e3          	bgeu	a4,a1,f00001dc <vfprintf+0x17c>
f0000200:	41668c33          	sub	s8,a3,s6
f0000204:	0ffc7c13          	andi	s8,s8,255
f0000208:	07f87813          	andi	a6,a6,127
f000020c:	04087793          	andi	a5,a6,64
f0000210:	3a078463          	beqz	a5,f00005b8 <vfprintf+0x558>
f0000214:	0fe87693          	andi	a3,a6,254
f0000218:	4fac6663          	bltu	s8,s10,f0000704 <vfprintf+0x6a4>
f000021c:	01087713          	andi	a4,a6,16
f0000220:	000c0d93          	mv	s11,s8
f0000224:	00068813          	mv	a6,a3
f0000228:	38070e63          	beqz	a4,f00005c4 <vfprintf+0x564>
f000022c:	02010793          	addi	a5,sp,32
f0000230:	018787b3          	add	a5,a5,s8
f0000234:	ff37c683          	lbu	a3,-13(a5)
f0000238:	03000793          	li	a5,48
f000023c:	4ef68263          	beq	a3,a5,f0000720 <vfprintf+0x6c0>
f0000240:	00487793          	andi	a5,a6,4
f0000244:	4e079463          	bnez	a5,f000072c <vfprintf+0x6cc>
f0000248:	001d8d93          	addi	s11,s11,1
f000024c:	0ffdfd93          	andi	s11,s11,255
f0000250:	00887793          	andi	a5,a6,8
f0000254:	00842683          	lw	a3,8(s0)
f0000258:	3c078663          	beqz	a5,f0000624 <vfprintf+0x5c4>
f000025c:	409df863          	bgeu	s11,s1,f000066c <vfprintf+0x60c>
f0000260:	41b484b3          	sub	s1,s1,s11
f0000264:	0ff4f493          	andi	s1,s1,255
f0000268:	40071663          	bnez	a4,f0000674 <vfprintf+0x614>
f000026c:	08687793          	andi	a5,a6,134
f0000270:	04078863          	beqz	a5,f00002c0 <vfprintf+0x260>
f0000274:	00287513          	andi	a0,a6,2
f0000278:	00153513          	seqz	a0,a0
f000027c:	40a00533          	neg	a0,a0
f0000280:	01881793          	slli	a5,a6,0x18
f0000284:	ff557513          	andi	a0,a0,-11
f0000288:	4187d793          	srai	a5,a5,0x18
f000028c:	02b50513          	addi	a0,a0,43
f0000290:	3407c663          	bltz	a5,f00005dc <vfprintf+0x57c>
f0000294:	40068a63          	beqz	a3,f00006a8 <vfprintf+0x648>
f0000298:	00042783          	lw	a5,0(s0)
f000029c:	00442703          	lw	a4,4(s0)
f00002a0:	00e7dc63          	bge	a5,a4,f00002b8 <vfprintf+0x258>
f00002a4:	00168793          	addi	a5,a3,1
f00002a8:	00f42423          	sw	a5,8(s0)
f00002ac:	00a68023          	sb	a0,0(a3)
f00002b0:	00042783          	lw	a5,0(s0)
f00002b4:	00842683          	lw	a3,8(s0)
f00002b8:	00178793          	addi	a5,a5,1
f00002bc:	00f42023          	sw	a5,0(s0)
f00002c0:	05ac7063          	bgeu	s8,s10,f0000300 <vfprintf+0x2a0>
f00002c4:	32068063          	beqz	a3,f00005e4 <vfprintf+0x584>
f00002c8:	00042783          	lw	a5,0(s0)
f00002cc:	00442703          	lw	a4,4(s0)
f00002d0:	00e7de63          	bge	a5,a4,f00002ec <vfprintf+0x28c>
f00002d4:	00168793          	addi	a5,a3,1
f00002d8:	00f42423          	sw	a5,8(s0)
f00002dc:	03000793          	li	a5,48
f00002e0:	00f68023          	sb	a5,0(a3)
f00002e4:	00042783          	lw	a5,0(s0)
f00002e8:	00842683          	lw	a3,8(s0)
f00002ec:	00178793          	addi	a5,a5,1
f00002f0:	fffd0d13          	addi	s10,s10,-1
f00002f4:	00f42023          	sw	a5,0(s0)
f00002f8:	0ffd7d13          	andi	s10,s10,255
f00002fc:	fdac14e3          	bne	s8,s10,f00002c4 <vfprintf+0x264>
f0000300:	fffc0c13          	addi	s8,s8,-1
f0000304:	0ffc7c13          	andi	s8,s8,255
f0000308:	018b0c33          	add	s8,s6,s8
f000030c:	0380006f          	j	f0000344 <vfprintf+0x2e4>
f0000310:	00042783          	lw	a5,0(s0)
f0000314:	00442703          	lw	a4,4(s0)
f0000318:	00e7da63          	bge	a5,a4,f000032c <vfprintf+0x2cc>
f000031c:	00168793          	addi	a5,a3,1
f0000320:	00f42423          	sw	a5,8(s0)
f0000324:	00a68023          	sb	a0,0(a3)
f0000328:	00042783          	lw	a5,0(s0)
f000032c:	00178793          	addi	a5,a5,1
f0000330:	00f42023          	sw	a5,0(s0)
f0000334:	fffc0793          	addi	a5,s8,-1
f0000338:	038b0663          	beq	s6,s8,f0000364 <vfprintf+0x304>
f000033c:	00842683          	lw	a3,8(s0)
f0000340:	00078c13          	mv	s8,a5
f0000344:	000c4503          	lbu	a0,0(s8)
f0000348:	fc0694e3          	bnez	a3,f0000310 <vfprintf+0x2b0>
f000034c:	56c000ef          	jal	ra,f00008b8 <putchar>
f0000350:	00042783          	lw	a5,0(s0)
f0000354:	00178793          	addi	a5,a5,1
f0000358:	00f42023          	sw	a5,0(s0)
f000035c:	fffc0793          	addi	a5,s8,-1
f0000360:	fd8b1ee3          	bne	s6,s8,f000033c <vfprintf+0x2dc>
f0000364:	02049e63          	bnez	s1,f00003a0 <vfprintf+0x340>
f0000368:	d95ff06f          	j	f00000fc <vfprintf+0x9c>
f000036c:	00042783          	lw	a5,0(s0)
f0000370:	00442683          	lw	a3,4(s0)
f0000374:	00d7dc63          	bge	a5,a3,f000038c <vfprintf+0x32c>
f0000378:	00170793          	addi	a5,a4,1
f000037c:	00f42423          	sw	a5,8(s0)
f0000380:	02000793          	li	a5,32
f0000384:	00f70023          	sb	a5,0(a4)
f0000388:	00042783          	lw	a5,0(s0)
f000038c:	00178793          	addi	a5,a5,1
f0000390:	fff48493          	addi	s1,s1,-1
f0000394:	00f42023          	sw	a5,0(s0)
f0000398:	0ff4f493          	andi	s1,s1,255
f000039c:	d60480e3          	beqz	s1,f00000fc <vfprintf+0x9c>
f00003a0:	00842703          	lw	a4,8(s0)
f00003a4:	fc0714e3          	bnez	a4,f000036c <vfprintf+0x30c>
f00003a8:	02000513          	li	a0,32
f00003ac:	50c000ef          	jal	ra,f00008b8 <putchar>
f00003b0:	00042783          	lw	a5,0(s0)
f00003b4:	fd9ff06f          	j	f000038c <vfprintf+0x32c>
f00003b8:	002c6c13          	ori	s8,s8,2
f00003bc:	004c6c13          	ori	s8,s8,4
f00003c0:	dcdff06f          	j	f000018c <vfprintf+0x12c>
f00003c4:	001c6c13          	ori	s8,s8,1
f00003c8:	dc5ff06f          	j	f000018c <vfprintf+0x12c>
f00003cc:	008c6c13          	ori	s8,s8,8
f00003d0:	dbdff06f          	j	f000018c <vfprintf+0x12c>
f00003d4:	010c6c13          	ori	s8,s8,16
f00003d8:	db5ff06f          	j	f000018c <vfprintf+0x12c>
f00003dc:	0f750463          	beq	a0,s7,f00004c4 <vfprintf+0x464>
f00003e0:	1cb50063          	beq	a0,a1,f00005a0 <vfprintf+0x540>
f00003e4:	db0504e3          	beq	a0,a6,f000018c <vfprintf+0x12c>
f00003e8:	fdf57793          	andi	a5,a0,-33
f00003ec:	fbb78793          	addi	a5,a5,-69
f00003f0:	0ff7f793          	andi	a5,a5,255
f00003f4:	00200713          	li	a4,2
f00003f8:	12f77263          	bgeu	a4,a5,f000051c <vfprintf+0x4bc>
f00003fc:	06300793          	li	a5,99
f0000400:	1af50463          	beq	a0,a5,f00005a8 <vfprintf+0x548>
f0000404:	07300793          	li	a5,115
f0000408:	1ef51863          	bne	a0,a5,f00005f8 <vfprintf+0x598>
f000040c:	040c7793          	andi	a5,s8,64
f0000410:	0009ad83          	lw	s11,0(s3)
f0000414:	fff00593          	li	a1,-1
f0000418:	00498993          	addi	s3,s3,4
f000041c:	00078463          	beqz	a5,f0000424 <vfprintf+0x3c4>
f0000420:	000d0593          	mv	a1,s10
f0000424:	000d8513          	mv	a0,s11
f0000428:	7f5000ef          	jal	ra,f000141c <strnlen>
f000042c:	008c7c13          	andi	s8,s8,8
f0000430:	00050d13          	mv	s10,a0
f0000434:	140c0463          	beqz	s8,f000057c <vfprintf+0x51c>
f0000438:	00090c93          	mv	s9,s2
f000043c:	f20d04e3          	beqz	s10,f0000364 <vfprintf+0x304>
f0000440:	000d8c13          	mv	s8,s11
f0000444:	03c0006f          	j	f0000480 <vfprintf+0x420>
f0000448:	00042783          	lw	a5,0(s0)
f000044c:	00442683          	lw	a3,4(s0)
f0000450:	00d7da63          	bge	a5,a3,f0000464 <vfprintf+0x404>
f0000454:	00170793          	addi	a5,a4,1
f0000458:	00f42423          	sw	a5,8(s0)
f000045c:	00a70023          	sb	a0,0(a4)
f0000460:	00042783          	lw	a5,0(s0)
f0000464:	00178793          	addi	a5,a5,1
f0000468:	00f42023          	sw	a5,0(s0)
f000046c:	00048663          	beqz	s1,f0000478 <vfprintf+0x418>
f0000470:	fff48493          	addi	s1,s1,-1
f0000474:	0ff4f493          	andi	s1,s1,255
f0000478:	41ac07b3          	sub	a5,s8,s10
f000047c:	11b78e63          	beq	a5,s11,f0000598 <vfprintf+0x538>
f0000480:	00842703          	lw	a4,8(s0)
f0000484:	001c0c13          	addi	s8,s8,1
f0000488:	fffc4503          	lbu	a0,-1(s8)
f000048c:	fa071ee3          	bnez	a4,f0000448 <vfprintf+0x3e8>
f0000490:	428000ef          	jal	ra,f00008b8 <putchar>
f0000494:	00042783          	lw	a5,0(s0)
f0000498:	fcdff06f          	j	f0000464 <vfprintf+0x404>
f000049c:	00249693          	slli	a3,s1,0x2
f00004a0:	00d484b3          	add	s1,s1,a3
f00004a4:	00149493          	slli	s1,s1,0x1
f00004a8:	00f487b3          	add	a5,s1,a5
f00004ac:	0ff7f493          	andi	s1,a5,255
f00004b0:	020c6c13          	ori	s8,s8,32
f00004b4:	cd9ff06f          	j	f000018c <vfprintf+0x12c>
f00004b8:	400000ef          	jal	ra,f00008b8 <putchar>
f00004bc:	00042783          	lw	a5,0(s0)
f00004c0:	c31ff06f          	j	f00000f0 <vfprintf+0x90>
f00004c4:	040c7793          	andi	a5,s8,64
f00004c8:	00079a63          	bnez	a5,f00004dc <vfprintf+0x47c>
f00004cc:	040c6c13          	ori	s8,s8,64
f00004d0:	cbdff06f          	j	f000018c <vfprintf+0x12c>
f00004d4:	07800793          	li	a5,120
f00004d8:	26f50063          	beq	a0,a5,f0000738 <vfprintf+0x6d8>
f00004dc:	00042503          	lw	a0,0(s0)
f00004e0:	05c12083          	lw	ra,92(sp)
f00004e4:	05812403          	lw	s0,88(sp)
f00004e8:	05412483          	lw	s1,84(sp)
f00004ec:	05012903          	lw	s2,80(sp)
f00004f0:	04c12983          	lw	s3,76(sp)
f00004f4:	04812a03          	lw	s4,72(sp)
f00004f8:	04412a83          	lw	s5,68(sp)
f00004fc:	04012b03          	lw	s6,64(sp)
f0000500:	03c12b83          	lw	s7,60(sp)
f0000504:	03812c03          	lw	s8,56(sp)
f0000508:	03412c83          	lw	s9,52(sp)
f000050c:	03012d03          	lw	s10,48(sp)
f0000510:	02c12d83          	lw	s11,44(sp)
f0000514:	06010113          	addi	sp,sp,96
f0000518:	00008067          	ret
f000051c:	00798993          	addi	s3,s3,7
f0000520:	ff89f993          	andi	s3,s3,-8
f0000524:	03f00793          	li	a5,63
f0000528:	00898993          	addi	s3,s3,8
f000052c:	00f10a23          	sb	a5,20(sp)
f0000530:	008c7c13          	andi	s8,s8,8
f0000534:	00100d13          	li	s10,1
f0000538:	000b0d93          	mv	s11,s6
f000053c:	f00c12e3          	bnez	s8,f0000440 <vfprintf+0x3e0>
f0000540:	f09d70e3          	bgeu	s10,s1,f0000440 <vfprintf+0x3e0>
f0000544:	00842703          	lw	a4,8(s0)
f0000548:	04070063          	beqz	a4,f0000588 <vfprintf+0x528>
f000054c:	00042783          	lw	a5,0(s0)
f0000550:	00442683          	lw	a3,4(s0)
f0000554:	00d7dc63          	bge	a5,a3,f000056c <vfprintf+0x50c>
f0000558:	00170793          	addi	a5,a4,1
f000055c:	00f42423          	sw	a5,8(s0)
f0000560:	02000793          	li	a5,32
f0000564:	00f70023          	sb	a5,0(a4)
f0000568:	00042783          	lw	a5,0(s0)
f000056c:	00178793          	addi	a5,a5,1
f0000570:	fff48493          	addi	s1,s1,-1
f0000574:	00f42023          	sw	a5,0(s0)
f0000578:	0ff4f493          	andi	s1,s1,255
f000057c:	ea9d7ee3          	bgeu	s10,s1,f0000438 <vfprintf+0x3d8>
f0000580:	00842703          	lw	a4,8(s0)
f0000584:	fc0714e3          	bnez	a4,f000054c <vfprintf+0x4ec>
f0000588:	02000513          	li	a0,32
f000058c:	32c000ef          	jal	ra,f00008b8 <putchar>
f0000590:	00042783          	lw	a5,0(s0)
f0000594:	fd9ff06f          	j	f000056c <vfprintf+0x50c>
f0000598:	00090c93          	mv	s9,s2
f000059c:	dc9ff06f          	j	f0000364 <vfprintf+0x304>
f00005a0:	080c6c13          	ori	s8,s8,128
f00005a4:	be9ff06f          	j	f000018c <vfprintf+0x12c>
f00005a8:	0009a783          	lw	a5,0(s3)
f00005ac:	00498993          	addi	s3,s3,4
f00005b0:	00f10a23          	sb	a5,20(sp)
f00005b4:	f7dff06f          	j	f0000530 <vfprintf+0x4d0>
f00005b8:	01087713          	andi	a4,a6,16
f00005bc:	000c0d93          	mv	s11,s8
f00005c0:	c60716e3          	bnez	a4,f000022c <vfprintf+0x1cc>
f00005c4:	08687713          	andi	a4,a6,134
f00005c8:	c80704e3          	beqz	a4,f0000250 <vfprintf+0x1f0>
f00005cc:	001d8d93          	addi	s11,s11,1
f00005d0:	0ffdfd93          	andi	s11,s11,255
f00005d4:	00000713          	li	a4,0
f00005d8:	c79ff06f          	j	f0000250 <vfprintf+0x1f0>
f00005dc:	02d00513          	li	a0,45
f00005e0:	cb5ff06f          	j	f0000294 <vfprintf+0x234>
f00005e4:	03000513          	li	a0,48
f00005e8:	2d0000ef          	jal	ra,f00008b8 <putchar>
f00005ec:	00042783          	lw	a5,0(s0)
f00005f0:	00842683          	lw	a3,8(s0)
f00005f4:	cf9ff06f          	j	f00002ec <vfprintf+0x28c>
f00005f8:	06400793          	li	a5,100
f00005fc:	0af50e63          	beq	a0,a5,f00006b8 <vfprintf+0x658>
f0000600:	06900793          	li	a5,105
f0000604:	0af50a63          	beq	a0,a5,f00006b8 <vfprintf+0x658>
f0000608:	07500793          	li	a5,117
f000060c:	1cf51063          	bne	a0,a5,f00007cc <vfprintf+0x76c>
f0000610:	0efc7813          	andi	a6,s8,239
f0000614:	00090c93          	mv	s9,s2
f0000618:	00a00593          	li	a1,10
f000061c:	00000793          	li	a5,0
f0000620:	ba1ff06f          	j	f00001c0 <vfprintf+0x160>
f0000624:	00187793          	andi	a5,a6,1
f0000628:	16079463          	bnez	a5,f0000790 <vfprintf+0x730>
f000062c:	049df063          	bgeu	s11,s1,f000066c <vfprintf+0x60c>
f0000630:	16068c63          	beqz	a3,f00007a8 <vfprintf+0x748>
f0000634:	00042783          	lw	a5,0(s0)
f0000638:	00442603          	lw	a2,4(s0)
f000063c:	00c7de63          	bge	a5,a2,f0000658 <vfprintf+0x5f8>
f0000640:	00168793          	addi	a5,a3,1
f0000644:	00f42423          	sw	a5,8(s0)
f0000648:	02000793          	li	a5,32
f000064c:	00f68023          	sb	a5,0(a3)
f0000650:	00042783          	lw	a5,0(s0)
f0000654:	00842683          	lw	a3,8(s0)
f0000658:	00178793          	addi	a5,a5,1
f000065c:	001d8d93          	addi	s11,s11,1
f0000660:	00f42023          	sw	a5,0(s0)
f0000664:	0ffdfd93          	andi	s11,s11,255
f0000668:	fc9d94e3          	bne	s11,s1,f0000630 <vfprintf+0x5d0>
f000066c:	00000493          	li	s1,0
f0000670:	be070ee3          	beqz	a4,f000026c <vfprintf+0x20c>
f0000674:	18068c63          	beqz	a3,f000080c <vfprintf+0x7ac>
f0000678:	00042783          	lw	a5,0(s0)
f000067c:	00442703          	lw	a4,4(s0)
f0000680:	0ee7ca63          	blt	a5,a4,f0000774 <vfprintf+0x714>
f0000684:	00178793          	addi	a5,a5,1
f0000688:	00f42023          	sw	a5,0(s0)
f000068c:	00487713          	andi	a4,a6,4
f0000690:	c20708e3          	beqz	a4,f00002c0 <vfprintf+0x260>
f0000694:	01e81513          	slli	a0,a6,0x1e
f0000698:	41f55513          	srai	a0,a0,0x1f
f000069c:	fe057513          	andi	a0,a0,-32
f00006a0:	07850513          	addi	a0,a0,120
f00006a4:	be069ce3          	bnez	a3,f000029c <vfprintf+0x23c>
f00006a8:	210000ef          	jal	ra,f00008b8 <putchar>
f00006ac:	00042783          	lw	a5,0(s0)
f00006b0:	00842683          	lw	a3,8(s0)
f00006b4:	c05ff06f          	j	f00002b8 <vfprintf+0x258>
f00006b8:	0009a783          	lw	a5,0(s3)
f00006bc:	06fc7813          	andi	a6,s8,111
f00006c0:	00498993          	addi	s3,s3,4
f00006c4:	0007d663          	bgez	a5,f00006d0 <vfprintf+0x670>
f00006c8:	40f007b3          	neg	a5,a5
f00006cc:	08086813          	ori	a6,a6,128
f00006d0:	000b0693          	mv	a3,s6
f00006d4:	00a00593          	li	a1,10
f00006d8:	02b7f733          	remu	a4,a5,a1
f00006dc:	00168693          	addi	a3,a3,1
f00006e0:	00078513          	mv	a0,a5
f00006e4:	03070713          	addi	a4,a4,48
f00006e8:	fee68fa3          	sb	a4,-1(a3)
f00006ec:	02b7d7b3          	divu	a5,a5,a1
f00006f0:	feaa64e3          	bltu	s4,a0,f00006d8 <vfprintf+0x678>
f00006f4:	41668c33          	sub	s8,a3,s6
f00006f8:	0ffc7c13          	andi	s8,s8,255
f00006fc:	00090c93          	mv	s9,s2
f0000700:	b0dff06f          	j	f000020c <vfprintf+0x1ac>
f0000704:	01487793          	andi	a5,a6,20
f0000708:	01000713          	li	a4,16
f000070c:	0ce78e63          	beq	a5,a4,f00007e8 <vfprintf+0x788>
f0000710:	01087713          	andi	a4,a6,16
f0000714:	000d0d93          	mv	s11,s10
f0000718:	00068813          	mv	a6,a3
f000071c:	b0dff06f          	j	f0000228 <vfprintf+0x1c8>
f0000720:	0e987813          	andi	a6,a6,233
f0000724:	00000713          	li	a4,0
f0000728:	b29ff06f          	j	f0000250 <vfprintf+0x1f0>
f000072c:	002d8d93          	addi	s11,s11,2
f0000730:	0ffdfd93          	andi	s11,s11,255
f0000734:	b1dff06f          	j	f0000250 <vfprintf+0x1f0>
f0000738:	010c7c13          	andi	s8,s8,16
f000073c:	01000593          	li	a1,16
f0000740:	00000793          	li	a5,0
f0000744:	a60c0ee3          	beqz	s8,f00001c0 <vfprintf+0x160>
f0000748:	00486813          	ori	a6,a6,4
f000074c:	00090c93          	mv	s9,s2
f0000750:	01000593          	li	a1,16
f0000754:	00000793          	li	a5,0
f0000758:	a69ff06f          	j	f00001c0 <vfprintf+0x160>
f000075c:	010c7c13          	andi	s8,s8,16
f0000760:	0a0c0063          	beqz	s8,f0000800 <vfprintf+0x7a0>
f0000764:	00686813          	ori	a6,a6,6
f0000768:	01000593          	li	a1,16
f000076c:	10000793          	li	a5,256
f0000770:	a51ff06f          	j	f00001c0 <vfprintf+0x160>
f0000774:	00168793          	addi	a5,a3,1
f0000778:	00f42423          	sw	a5,8(s0)
f000077c:	03000793          	li	a5,48
f0000780:	00f68023          	sb	a5,0(a3)
f0000784:	00042783          	lw	a5,0(s0)
f0000788:	00842683          	lw	a3,8(s0)
f000078c:	ef9ff06f          	j	f0000684 <vfprintf+0x624>
f0000790:	069df263          	bgeu	s11,s1,f00007f4 <vfprintf+0x794>
f0000794:	009c0d33          	add	s10,s8,s1
f0000798:	41bd0d33          	sub	s10,s10,s11
f000079c:	0ffd7d13          	andi	s10,s10,255
f00007a0:	00000493          	li	s1,0
f00007a4:	ac5ff06f          	j	f0000268 <vfprintf+0x208>
f00007a8:	02000513          	li	a0,32
f00007ac:	00e12623          	sw	a4,12(sp)
f00007b0:	01012423          	sw	a6,8(sp)
f00007b4:	104000ef          	jal	ra,f00008b8 <putchar>
f00007b8:	00042783          	lw	a5,0(s0)
f00007bc:	00842683          	lw	a3,8(s0)
f00007c0:	00c12703          	lw	a4,12(sp)
f00007c4:	00812803          	lw	a6,8(sp)
f00007c8:	e91ff06f          	j	f0000658 <vfprintf+0x5f8>
f00007cc:	07000793          	li	a5,112
f00007d0:	0f9c7813          	andi	a6,s8,249
f00007d4:	04f51a63          	bne	a0,a5,f0000828 <vfprintf+0x7c8>
f00007d8:	01086813          	ori	a6,a6,16
f00007dc:	f6dff06f          	j	f0000748 <vfprintf+0x6e8>
f00007e0:	00000513          	li	a0,0
f00007e4:	cfdff06f          	j	f00004e0 <vfprintf+0x480>
f00007e8:	0ee87813          	andi	a6,a6,238
f00007ec:	000d0d93          	mv	s11,s10
f00007f0:	dd5ff06f          	j	f00005c4 <vfprintf+0x564>
f00007f4:	000c0d13          	mv	s10,s8
f00007f8:	00000493          	li	s1,0
f00007fc:	a6dff06f          	j	f0000268 <vfprintf+0x208>
f0000800:	01000593          	li	a1,16
f0000804:	10000793          	li	a5,256
f0000808:	9b9ff06f          	j	f00001c0 <vfprintf+0x160>
f000080c:	03000513          	li	a0,48
f0000810:	01012423          	sw	a6,8(sp)
f0000814:	0a4000ef          	jal	ra,f00008b8 <putchar>
f0000818:	00042783          	lw	a5,0(s0)
f000081c:	00842683          	lw	a3,8(s0)
f0000820:	00812803          	lw	a6,8(sp)
f0000824:	e61ff06f          	j	f0000684 <vfprintf+0x624>
f0000828:	00090c93          	mv	s9,s2
f000082c:	975ff06f          	j	f00001a0 <vfprintf+0x140>

f0000830 <printf>:
f0000830:	fc010113          	addi	sp,sp,-64
f0000834:	02410313          	addi	t1,sp,36
f0000838:	02b12223          	sw	a1,36(sp)
f000083c:	02c12423          	sw	a2,40(sp)
f0000840:	00050593          	mv	a1,a0
f0000844:	00030613          	mv	a2,t1
f0000848:	00410513          	addi	a0,sp,4
f000084c:	00112e23          	sw	ra,28(sp)
f0000850:	02d12623          	sw	a3,44(sp)
f0000854:	02e12823          	sw	a4,48(sp)
f0000858:	02f12a23          	sw	a5,52(sp)
f000085c:	03012c23          	sw	a6,56(sp)
f0000860:	03112e23          	sw	a7,60(sp)
f0000864:	00012623          	sw	zero,12(sp)
f0000868:	00612023          	sw	t1,0(sp)
f000086c:	ff4ff0ef          	jal	ra,f0000060 <vfprintf>
f0000870:	01c12083          	lw	ra,28(sp)
f0000874:	04010113          	addi	sp,sp,64
f0000878:	00008067          	ret

f000087c <puts>:
f000087c:	ff010113          	addi	sp,sp,-16
f0000880:	00812423          	sw	s0,8(sp)
f0000884:	00112623          	sw	ra,12(sp)
f0000888:	00050413          	mv	s0,a0
f000088c:	00054503          	lbu	a0,0(a0)
f0000890:	00050a63          	beqz	a0,f00008a4 <puts+0x28>
f0000894:	00140413          	addi	s0,s0,1
f0000898:	020000ef          	jal	ra,f00008b8 <putchar>
f000089c:	00044503          	lbu	a0,0(s0)
f00008a0:	fe051ae3          	bnez	a0,f0000894 <puts+0x18>
f00008a4:	00812403          	lw	s0,8(sp)
f00008a8:	00c12083          	lw	ra,12(sp)
f00008ac:	00a00513          	li	a0,10
f00008b0:	01010113          	addi	sp,sp,16
f00008b4:	0040006f          	j	f00008b8 <putchar>

f00008b8 <putchar>:
f00008b8:	ff010113          	addi	sp,sp,-16
f00008bc:	00812423          	sw	s0,8(sp)
f00008c0:	00112623          	sw	ra,12(sp)
f00008c4:	00a00793          	li	a5,10
f00008c8:	00050413          	mv	s0,a0
f00008cc:	00f50c63          	beq	a0,a5,f00008e4 <putchar+0x2c>
f00008d0:	00040513          	mv	a0,s0
f00008d4:	00812403          	lw	s0,8(sp)
f00008d8:	00c12083          	lw	ra,12(sp)
f00008dc:	01010113          	addi	sp,sp,16
f00008e0:	2a40006f          	j	f0000b84 <uart_putchar>
f00008e4:	00d00513          	li	a0,13
f00008e8:	29c000ef          	jal	ra,f0000b84 <uart_putchar>
f00008ec:	00040513          	mv	a0,s0
f00008f0:	00812403          	lw	s0,8(sp)
f00008f4:	00c12083          	lw	ra,12(sp)
f00008f8:	01010113          	addi	sp,sp,16
f00008fc:	2880006f          	j	f0000b84 <uart_putchar>

f0000900 <console_puthex16>:
f0000900:	ff010113          	addi	sp,sp,-16
f0000904:	00912223          	sw	s1,4(sp)
f0000908:	00050493          	mv	s1,a0
f000090c:	00c55513          	srli	a0,a0,0xc
f0000910:	00812423          	sw	s0,8(sp)
f0000914:	00f57513          	andi	a0,a0,15
f0000918:	00900413          	li	s0,9
f000091c:	00a427b3          	slt	a5,s0,a0
f0000920:	40f007b3          	neg	a5,a5
f0000924:	0077f793          	andi	a5,a5,7
f0000928:	03078793          	addi	a5,a5,48
f000092c:	00f50533          	add	a0,a0,a5
f0000930:	00112623          	sw	ra,12(sp)
f0000934:	01212023          	sw	s2,0(sp)
f0000938:	24c000ef          	jal	ra,f0000b84 <uart_putchar>
f000093c:	0084d913          	srli	s2,s1,0x8
f0000940:	00f97513          	andi	a0,s2,15
f0000944:	00a427b3          	slt	a5,s0,a0
f0000948:	40f007b3          	neg	a5,a5
f000094c:	0077f793          	andi	a5,a5,7
f0000950:	03078793          	addi	a5,a5,48
f0000954:	00f50533          	add	a0,a0,a5
f0000958:	22c000ef          	jal	ra,f0000b84 <uart_putchar>
f000095c:	0044d513          	srli	a0,s1,0x4
f0000960:	00f57513          	andi	a0,a0,15
f0000964:	00a427b3          	slt	a5,s0,a0
f0000968:	40f007b3          	neg	a5,a5
f000096c:	0077f793          	andi	a5,a5,7
f0000970:	03078793          	addi	a5,a5,48
f0000974:	00f50533          	add	a0,a0,a5
f0000978:	20c000ef          	jal	ra,f0000b84 <uart_putchar>
f000097c:	00f4f513          	andi	a0,s1,15
f0000980:	00a42433          	slt	s0,s0,a0
f0000984:	40800433          	neg	s0,s0
f0000988:	00747413          	andi	s0,s0,7
f000098c:	03040413          	addi	s0,s0,48
f0000990:	00850533          	add	a0,a0,s0
f0000994:	00812403          	lw	s0,8(sp)
f0000998:	00c12083          	lw	ra,12(sp)
f000099c:	00412483          	lw	s1,4(sp)
f00009a0:	00012903          	lw	s2,0(sp)
f00009a4:	01010113          	addi	sp,sp,16
f00009a8:	1dc0006f          	j	f0000b84 <uart_putchar>

f00009ac <console_puthex32>:
f00009ac:	ff010113          	addi	sp,sp,-16
f00009b0:	00812423          	sw	s0,8(sp)
f00009b4:	00912223          	sw	s1,4(sp)
f00009b8:	00900413          	li	s0,9
f00009bc:	00050493          	mv	s1,a0
f00009c0:	01c55513          	srli	a0,a0,0x1c
f00009c4:	00a437b3          	sltu	a5,s0,a0
f00009c8:	40f007b3          	neg	a5,a5
f00009cc:	0077f793          	andi	a5,a5,7
f00009d0:	03078793          	addi	a5,a5,48
f00009d4:	00f50533          	add	a0,a0,a5
f00009d8:	00112623          	sw	ra,12(sp)
f00009dc:	01212023          	sw	s2,0(sp)
f00009e0:	1a4000ef          	jal	ra,f0000b84 <uart_putchar>
f00009e4:	0184d913          	srli	s2,s1,0x18
f00009e8:	00f97513          	andi	a0,s2,15
f00009ec:	00a427b3          	slt	a5,s0,a0
f00009f0:	40f007b3          	neg	a5,a5
f00009f4:	0077f793          	andi	a5,a5,7
f00009f8:	03078793          	addi	a5,a5,48
f00009fc:	00f50533          	add	a0,a0,a5
f0000a00:	184000ef          	jal	ra,f0000b84 <uart_putchar>
f0000a04:	0144d513          	srli	a0,s1,0x14
f0000a08:	00f57513          	andi	a0,a0,15
f0000a0c:	00a427b3          	slt	a5,s0,a0
f0000a10:	40f007b3          	neg	a5,a5
f0000a14:	0077f793          	andi	a5,a5,7
f0000a18:	03078793          	addi	a5,a5,48
f0000a1c:	00f50533          	add	a0,a0,a5
f0000a20:	164000ef          	jal	ra,f0000b84 <uart_putchar>
f0000a24:	0104d913          	srli	s2,s1,0x10
f0000a28:	00f97513          	andi	a0,s2,15
f0000a2c:	00a42433          	slt	s0,s0,a0
f0000a30:	40800433          	neg	s0,s0
f0000a34:	00747413          	andi	s0,s0,7
f0000a38:	03040413          	addi	s0,s0,48
f0000a3c:	00850533          	add	a0,a0,s0
f0000a40:	144000ef          	jal	ra,f0000b84 <uart_putchar>
f0000a44:	00812403          	lw	s0,8(sp)
f0000a48:	00c12083          	lw	ra,12(sp)
f0000a4c:	00012903          	lw	s2,0(sp)
f0000a50:	00048513          	mv	a0,s1
f0000a54:	00412483          	lw	s1,4(sp)
f0000a58:	01010113          	addi	sp,sp,16
f0000a5c:	ea5ff06f          	j	f0000900 <console_puthex16>

f0000a60 <console_putstr>:
f0000a60:	ff010113          	addi	sp,sp,-16
f0000a64:	00112623          	sw	ra,12(sp)
f0000a68:	00812423          	sw	s0,8(sp)
f0000a6c:	00912223          	sw	s1,4(sp)
f0000a70:	01212023          	sw	s2,0(sp)
f0000a74:	00054403          	lbu	s0,0(a0)
f0000a78:	04040063          	beqz	s0,f0000ab8 <console_putstr+0x58>
f0000a7c:	00050493          	mv	s1,a0
f0000a80:	00a00913          	li	s2,10
f0000a84:	0140006f          	j	f0000a98 <console_putstr+0x38>
f0000a88:	00040513          	mv	a0,s0
f0000a8c:	0f8000ef          	jal	ra,f0000b84 <uart_putchar>
f0000a90:	0004c403          	lbu	s0,0(s1)
f0000a94:	02040263          	beqz	s0,f0000ab8 <console_putstr+0x58>
f0000a98:	00148493          	addi	s1,s1,1
f0000a9c:	ff2416e3          	bne	s0,s2,f0000a88 <console_putstr+0x28>
f0000aa0:	00d00513          	li	a0,13
f0000aa4:	0e0000ef          	jal	ra,f0000b84 <uart_putchar>
f0000aa8:	00040513          	mv	a0,s0
f0000aac:	0d8000ef          	jal	ra,f0000b84 <uart_putchar>
f0000ab0:	0004c403          	lbu	s0,0(s1)
f0000ab4:	fe0412e3          	bnez	s0,f0000a98 <console_putstr+0x38>
f0000ab8:	00c12083          	lw	ra,12(sp)
f0000abc:	00812403          	lw	s0,8(sp)
f0000ac0:	00412483          	lw	s1,4(sp)
f0000ac4:	00012903          	lw	s2,0(sp)
f0000ac8:	01010113          	addi	sp,sp,16
f0000acc:	00008067          	ret

f0000ad0 <exit>:
f0000ad0:	ff010113          	addi	sp,sp,-16
f0000ad4:	00812423          	sw	s0,8(sp)
f0000ad8:	00050413          	mv	s0,a0
f0000adc:	84418513          	addi	a0,gp,-1980 # f0001498 <strnlen+0x7c>
f0000ae0:	00112623          	sw	ra,12(sp)
f0000ae4:	f7dff0ef          	jal	ra,f0000a60 <console_putstr>
f0000ae8:	00040513          	mv	a0,s0
f0000aec:	ec1ff0ef          	jal	ra,f00009ac <console_puthex32>
f0000af0:	00a00513          	li	a0,10
f0000af4:	dc5ff0ef          	jal	ra,f00008b8 <putchar>
f0000af8:	0000006f          	j	f0000af8 <exit+0x28>

f0000afc <c_start>:
f0000afc:	ff010113          	addi	sp,sp,-16
f0000b00:	00112623          	sw	ra,12(sp)
f0000b04:	044000ef          	jal	ra,f0000b48 <scr_uart_init>
f0000b08:	f00407b7          	lui	a5,0xf0040
f0000b0c:	0007a023          	sw	zero,0(a5) # f0040000 <__C_STACK_TOP__+0x30000>
f0000b10:	0007a423          	sw	zero,8(a5)
f0000b14:	0007a623          	sw	zero,12(a5)
f0000b18:	0007a823          	sw	zero,16(a5)
f0000b1c:	fff00713          	li	a4,-1
f0000b20:	00e7aa23          	sw	a4,20(a5)
f0000b24:	00e7a823          	sw	a4,16(a5)
f0000b28:	01300713          	li	a4,19
f0000b2c:	00e7a223          	sw	a4,4(a5)
f0000b30:	00100713          	li	a4,1
f0000b34:	00000593          	li	a1,0
f0000b38:	00e7a023          	sw	a4,0(a5)
f0000b3c:	00000513          	li	a0,0
f0000b40:	1d4000ef          	jal	ra,f0000d14 <main>
f0000b44:	f8dff0ef          	jal	ra,f0000ad0 <exit>

f0000b48 <scr_uart_init>:
f0000b48:	ff0107b7          	lui	a5,0xff010
f0000b4c:	0007a223          	sw	zero,4(a5) # ff010004 <__C_STACK_TOP__+0xf000004>
f0000b50:	0007a823          	sw	zero,16(a5)
f0000b54:	08300713          	li	a4,131
f0000b58:	00e7a623          	sw	a4,12(a5)
f0000b5c:	00b00713          	li	a4,11
f0000b60:	00e7a023          	sw	a4,0(a5)
f0000b64:	0007a223          	sw	zero,4(a5)
f0000b68:	00300713          	li	a4,3
f0000b6c:	00e7a623          	sw	a4,12(a5)
f0000b70:	00700713          	li	a4,7
f0000b74:	00e7a423          	sw	a4,8(a5)
f0000b78:	00100713          	li	a4,1
f0000b7c:	00e7a423          	sw	a4,8(a5)
f0000b80:	00008067          	ret

f0000b84 <uart_putchar>:
f0000b84:	ff010737          	lui	a4,0xff010
f0000b88:	01472783          	lw	a5,20(a4) # ff010014 <__C_STACK_TOP__+0xf000014>
f0000b8c:	0207f793          	andi	a5,a5,32
f0000b90:	fe078ce3          	beqz	a5,f0000b88 <uart_putchar+0x4>
f0000b94:	0ff57793          	andi	a5,a0,255
f0000b98:	00f72023          	sw	a5,0(a4)
f0000b9c:	00008067          	ret

f0000ba0 <calculate_accuracy>:
f0000ba0:	f8010113          	addi	sp,sp,-128
f0000ba4:	06112e23          	sw	ra,124(sp)
f0000ba8:	06812c23          	sw	s0,120(sp)
f0000bac:	06912a23          	sw	s1,116(sp)
f0000bb0:	07212823          	sw	s2,112(sp)
f0000bb4:	07312623          	sw	s3,108(sp)
f0000bb8:	07412423          	sw	s4,104(sp)
f0000bbc:	07512223          	sw	s5,100(sp)
f0000bc0:	07612023          	sw	s6,96(sp)
f0000bc4:	05712e23          	sw	s7,92(sp)
f0000bc8:	05812c23          	sw	s8,88(sp)
f0000bcc:	05912a23          	sw	s9,84(sp)
f0000bd0:	05a12823          	sw	s10,80(sp)
f0000bd4:	05b12623          	sw	s11,76(sp)
f0000bd8:	00c12623          	sw	a2,12(sp)
f0000bdc:	12060863          	beqz	a2,f0000d0c <calculate_accuracy+0x16c>
f0000be0:	f0004bb7          	lui	s7,0xf0004
f0000be4:	00068c13          	mv	s8,a3
f0000be8:	00058a13          	mv	s4,a1
f0000bec:	00050a93          	mv	s5,a0
f0000bf0:	00c58cb3          	add	s9,a1,a2
f0000bf4:	00000b13          	li	s6,0
f0000bf8:	4a0b8b93          	addi	s7,s7,1184 # f00044a0 <__C_STACK_TOP__+0xffff44a0>
f0000bfc:	00a00913          	li	s2,10
f0000c00:	c00024f3          	rdcycle	s1
f0000c04:	c8002473          	rdcycleh	s0
f0000c08:	01810613          	addi	a2,sp,24
f0000c0c:	000c0593          	mv	a1,s8
f0000c10:	000a8513          	mv	a0,s5
f0000c14:	31c000ef          	jal	ra,f0000f30 <neural_network_hypothesis>
f0000c18:	c0002773          	rdcycle	a4
f0000c1c:	c80027f3          	rdcycleh	a5
f0000c20:	00977463          	bgeu	a4,s1,f0000c28 <calculate_accuracy+0x88>
f0000c24:	fff78793          	addi	a5,a5,-1
f0000c28:	000ba683          	lw	a3,0(s7)
f0000c2c:	408787b3          	sub	a5,a5,s0
f0000c30:	40970733          	sub	a4,a4,s1
f0000c34:	0cf6f063          	bgeu	a3,a5,f0000cf4 <calculate_accuracy+0x154>
f0000c38:	f00046b7          	lui	a3,0xf0004
f0000c3c:	4a468693          	addi	a3,a3,1188 # f00044a4 <__C_STACK_TOP__+0xffff44a4>
f0000c40:	00fba023          	sw	a5,0(s7)
f0000c44:	00e6a023          	sw	a4,0(a3)
f0000c48:	01812d03          	lw	s10,24(sp)
f0000c4c:	01c10493          	addi	s1,sp,28
f0000c50:	00000993          	li	s3,0
f0000c54:	000d0d93          	mv	s11,s10
f0000c58:	00000413          	li	s0,0
f0000c5c:	00c0006f          	j	f0000c68 <calculate_accuracy+0xc8>
f0000c60:	0004ad83          	lw	s11,0(s1)
f0000c64:	00448493          	addi	s1,s1,4
f0000c68:	000d0593          	mv	a1,s10
f0000c6c:	000d8513          	mv	a0,s11
f0000c70:	3c8000ef          	jal	ra,f0001038 <fix16_ssub>
f0000c74:	00054663          	bltz	a0,f0000c80 <calculate_accuracy+0xe0>
f0000c78:	00040993          	mv	s3,s0
f0000c7c:	000d8d13          	mv	s10,s11
f0000c80:	00140413          	addi	s0,s0,1
f0000c84:	fd241ee3          	bne	s0,s2,f0000c60 <calculate_accuracy+0xc0>
f0000c88:	000a4783          	lbu	a5,0(s4)
f0000c8c:	001a0a13          	addi	s4,s4,1
f0000c90:	031a8a93          	addi	s5,s5,49
f0000c94:	413789b3          	sub	s3,a5,s3
f0000c98:	0019b993          	seqz	s3,s3
f0000c9c:	013b0b33          	add	s6,s6,s3
f0000ca0:	f74c90e3          	bne	s9,s4,f0000c00 <calculate_accuracy+0x60>
f0000ca4:	06400513          	li	a0,100
f0000ca8:	02ab0533          	mul	a0,s6,a0
f0000cac:	01051513          	slli	a0,a0,0x10
f0000cb0:	00c12783          	lw	a5,12(sp)
f0000cb4:	07812403          	lw	s0,120(sp)
f0000cb8:	07c12083          	lw	ra,124(sp)
f0000cbc:	07412483          	lw	s1,116(sp)
f0000cc0:	07012903          	lw	s2,112(sp)
f0000cc4:	06c12983          	lw	s3,108(sp)
f0000cc8:	06812a03          	lw	s4,104(sp)
f0000ccc:	06412a83          	lw	s5,100(sp)
f0000cd0:	06012b03          	lw	s6,96(sp)
f0000cd4:	05c12b83          	lw	s7,92(sp)
f0000cd8:	05812c03          	lw	s8,88(sp)
f0000cdc:	05412c83          	lw	s9,84(sp)
f0000ce0:	05012d03          	lw	s10,80(sp)
f0000ce4:	04c12d83          	lw	s11,76(sp)
f0000ce8:	01079593          	slli	a1,a5,0x10
f0000cec:	08010113          	addi	sp,sp,128
f0000cf0:	49c0006f          	j	f000118c <fix16_div>
f0000cf4:	f4f69ae3          	bne	a3,a5,f0000c48 <calculate_accuracy+0xa8>
f0000cf8:	f00046b7          	lui	a3,0xf0004
f0000cfc:	4a468693          	addi	a3,a3,1188 # f00044a4 <__C_STACK_TOP__+0xffff44a4>
f0000d00:	0006a603          	lw	a2,0(a3)
f0000d04:	f4e672e3          	bgeu	a2,a4,f0000c48 <calculate_accuracy+0xa8>
f0000d08:	f39ff06f          	j	f0000c40 <calculate_accuracy+0xa0>
f0000d0c:	00000513          	li	a0,0
f0000d10:	fa1ff06f          	j	f0000cb0 <calculate_accuracy+0x110>

f0000d14 <main>:
f0000d14:	fe010113          	addi	sp,sp,-32
f0000d18:	00112e23          	sw	ra,28(sp)
f0000d1c:	00812c23          	sw	s0,24(sp)
f0000d20:	00912a23          	sw	s1,20(sp)
f0000d24:	01212823          	sw	s2,16(sp)
f0000d28:	01312623          	sw	s3,12(sp)
f0000d2c:	c00029f3          	rdcycle	s3
f0000d30:	c80024f3          	rdcycleh	s1
f0000d34:	f00046b7          	lui	a3,0xf0004
f0000d38:	f00045b7          	lui	a1,0xf0004
f0000d3c:	f0001537          	lui	a0,0xf0001
f0000d40:	cd068693          	addi	a3,a3,-816 # f0003cd0 <__C_STACK_TOP__+0xffff3cd0>
f0000d44:	0c800613          	li	a2,200
f0000d48:	c0858593          	addi	a1,a1,-1016 # f0003c08 <__C_STACK_TOP__+0xffff3c08>
f0000d4c:	5c050513          	addi	a0,a0,1472 # f00015c0 <__C_STACK_TOP__+0xffff15c0>
f0000d50:	e51ff0ef          	jal	ra,f0000ba0 <calculate_accuracy>
f0000d54:	00050413          	mv	s0,a0
f0000d58:	84c18513          	addi	a0,gp,-1972 # f00014a0 <strnlen+0x84>
f0000d5c:	b21ff0ef          	jal	ra,f000087c <puts>
f0000d60:	41045593          	srai	a1,s0,0x10
f0000d64:	88818513          	addi	a0,gp,-1912 # f00014dc <strnlen+0xc0>
f0000d68:	ac9ff0ef          	jal	ra,f0000830 <printf>
f0000d6c:	00098613          	mv	a2,s3
f0000d70:	00048593          	mv	a1,s1
f0000d74:	8a018513          	addi	a0,gp,-1888 # f00014f4 <strnlen+0xd8>
f0000d78:	ab9ff0ef          	jal	ra,f0000830 <printf>
f0000d7c:	c0002473          	rdcycle	s0
f0000d80:	c8002973          	rdcycleh	s2
f0000d84:	00040613          	mv	a2,s0
f0000d88:	00090593          	mv	a1,s2
f0000d8c:	8c018513          	addi	a0,gp,-1856 # f0001514 <strnlen+0xf8>
f0000d90:	aa1ff0ef          	jal	ra,f0000830 <printf>
f0000d94:	01347463          	bgeu	s0,s3,f0000d9c <main+0x88>
f0000d98:	fff90913          	addi	s2,s2,-1
f0000d9c:	41340433          	sub	s0,s0,s3
f0000da0:	409904b3          	sub	s1,s2,s1
f0000da4:	00040613          	mv	a2,s0
f0000da8:	00048593          	mv	a1,s1
f0000dac:	8e018513          	addi	a0,gp,-1824 # f0001534 <strnlen+0x118>
f0000db0:	a81ff0ef          	jal	ra,f0000830 <printf>
f0000db4:	f00047b7          	lui	a5,0xf0004
f0000db8:	4a07a583          	lw	a1,1184(a5) # f00044a0 <__C_STACK_TOP__+0xffff44a0>
f0000dbc:	f00047b7          	lui	a5,0xf0004
f0000dc0:	4a47a603          	lw	a2,1188(a5) # f00044a4 <__C_STACK_TOP__+0xffff44a4>
f0000dc4:	90018513          	addi	a0,gp,-1792 # f0001554 <strnlen+0x138>
f0000dc8:	a69ff0ef          	jal	ra,f0000830 <printf>
f0000dcc:	00040693          	mv	a3,s0
f0000dd0:	00048613          	mv	a2,s1
f0000dd4:	0c800593          	li	a1,200
f0000dd8:	92818513          	addi	a0,gp,-1752 # f000157c <strnlen+0x160>
f0000ddc:	a55ff0ef          	jal	ra,f0000830 <printf>
f0000de0:	01c12083          	lw	ra,28(sp)
f0000de4:	01812403          	lw	s0,24(sp)
f0000de8:	01412483          	lw	s1,20(sp)
f0000dec:	01012903          	lw	s2,16(sp)
f0000df0:	00c12983          	lw	s3,12(sp)
f0000df4:	00000513          	li	a0,0
f0000df8:	02010113          	addi	sp,sp,32
f0000dfc:	00008067          	ret

f0000e00 <neural_network_softmax>:
f0000e00:	fd010113          	addi	sp,sp,-48
f0000e04:	02912223          	sw	s1,36(sp)
f0000e08:	01412c23          	sw	s4,24(sp)
f0000e0c:	01512a23          	sw	s5,20(sp)
f0000e10:	02112623          	sw	ra,44(sp)
f0000e14:	02812423          	sw	s0,40(sp)
f0000e18:	03212023          	sw	s2,32(sp)
f0000e1c:	01312e23          	sw	s3,28(sp)
f0000e20:	01612823          	sw	s6,16(sp)
f0000e24:	01712623          	sw	s7,12(sp)
f0000e28:	00100793          	li	a5,1
f0000e2c:	00052a83          	lw	s5,0(a0)
f0000e30:	00050493          	mv	s1,a0
f0000e34:	00058a13          	mv	s4,a1
f0000e38:	0eb7d663          	bge	a5,a1,f0000f24 <neural_network_softmax+0x124>
f0000e3c:	00450913          	addi	s2,a0,4
f0000e40:	fff00b13          	li	s6,-1
f0000e44:	00100413          	li	s0,1
f0000e48:	00092983          	lw	s3,0(s2)
f0000e4c:	000a8593          	mv	a1,s5
f0000e50:	00490913          	addi	s2,s2,4
f0000e54:	00098513          	mv	a0,s3
f0000e58:	1e0000ef          	jal	ra,f0001038 <fix16_ssub>
f0000e5c:	00054663          	bltz	a0,f0000e68 <neural_network_softmax+0x68>
f0000e60:	00040b13          	mv	s6,s0
f0000e64:	00098a93          	mv	s5,s3
f0000e68:	00140413          	addi	s0,s0,1
f0000e6c:	fc8a1ee3          	bne	s4,s0,f0000e48 <neural_network_softmax+0x48>
f0000e70:	00048993          	mv	s3,s1
f0000e74:	00000413          	li	s0,0
f0000e78:	00000913          	li	s2,0
f0000e7c:	00010bb7          	lui	s7,0x10
f0000e80:	0300006f          	j	f0000eb0 <neural_network_softmax+0xb0>
f0000e84:	0009a503          	lw	a0,0(s3)
f0000e88:	00190913          	addi	s2,s2,1
f0000e8c:	00498993          	addi	s3,s3,4
f0000e90:	1a8000ef          	jal	ra,f0001038 <fix16_ssub>
f0000e94:	414000ef          	jal	ra,f00012a8 <fix16_exp>
f0000e98:	fea9ae23          	sw	a0,-4(s3)
f0000e9c:	00050593          	mv	a1,a0
f0000ea0:	00040513          	mv	a0,s0
f0000ea4:	15c000ef          	jal	ra,f0001000 <fix16_sadd>
f0000ea8:	00050413          	mv	s0,a0
f0000eac:	03495663          	bge	s2,s4,f0000ed8 <neural_network_softmax+0xd8>
f0000eb0:	000a8593          	mv	a1,s5
f0000eb4:	fd6918e3          	bne	s2,s6,f0000e84 <neural_network_softmax+0x84>
f0000eb8:	0179a023          	sw	s7,0(s3)
f0000ebc:	00040513          	mv	a0,s0
f0000ec0:	000105b7          	lui	a1,0x10
f0000ec4:	13c000ef          	jal	ra,f0001000 <fix16_sadd>
f0000ec8:	00190913          	addi	s2,s2,1
f0000ecc:	00050413          	mv	s0,a0
f0000ed0:	00498993          	addi	s3,s3,4
f0000ed4:	fd494ee3          	blt	s2,s4,f0000eb0 <neural_network_softmax+0xb0>
f0000ed8:	00000913          	li	s2,0
f0000edc:	0004a503          	lw	a0,0(s1)
f0000ee0:	00040593          	mv	a1,s0
f0000ee4:	00190913          	addi	s2,s2,1
f0000ee8:	2a4000ef          	jal	ra,f000118c <fix16_div>
f0000eec:	00a4a023          	sw	a0,0(s1)
f0000ef0:	00448493          	addi	s1,s1,4
f0000ef4:	ff4944e3          	blt	s2,s4,f0000edc <neural_network_softmax+0xdc>
f0000ef8:	02c12083          	lw	ra,44(sp)
f0000efc:	02812403          	lw	s0,40(sp)
f0000f00:	02412483          	lw	s1,36(sp)
f0000f04:	02012903          	lw	s2,32(sp)
f0000f08:	01c12983          	lw	s3,28(sp)
f0000f0c:	01812a03          	lw	s4,24(sp)
f0000f10:	01412a83          	lw	s5,20(sp)
f0000f14:	01012b03          	lw	s6,16(sp)
f0000f18:	00c12b83          	lw	s7,12(sp)
f0000f1c:	03010113          	addi	sp,sp,48
f0000f20:	00008067          	ret
f0000f24:	fcf59ae3          	bne	a1,a5,f0000ef8 <neural_network_softmax+0xf8>
f0000f28:	fff00b13          	li	s6,-1
f0000f2c:	f45ff06f          	j	f0000e70 <neural_network_softmax+0x70>

f0000f30 <neural_network_hypothesis>:
f0000f30:	fd010113          	addi	sp,sp,-48
f0000f34:	01512a23          	sw	s5,20(sp)
f0000f38:	00001ab7          	lui	s5,0x1
f0000f3c:	894a8a93          	addi	s5,s5,-1900 # 894 <STACK_SIZE+0x94>
f0000f40:	03212023          	sw	s2,32(sp)
f0000f44:	01312e23          	sw	s3,28(sp)
f0000f48:	01412c23          	sw	s4,24(sp)
f0000f4c:	01612823          	sw	s6,16(sp)
f0000f50:	01712623          	sw	s7,12(sp)
f0000f54:	02112623          	sw	ra,44(sp)
f0000f58:	02812423          	sw	s0,40(sp)
f0000f5c:	02912223          	sw	s1,36(sp)
f0000f60:	00058a13          	mv	s4,a1
f0000f64:	00060b93          	mv	s7,a2
f0000f68:	00050b13          	mv	s6,a0
f0000f6c:	00060993          	mv	s3,a2
f0000f70:	0ec58913          	addi	s2,a1,236 # 100ec <STACK_SIZE+0xf8ec>
f0000f74:	01558ab3          	add	s5,a1,s5
f0000f78:	000a2783          	lw	a5,0(s4)
f0000f7c:	000b0493          	mv	s1,s6
f0000f80:	f3c90413          	addi	s0,s2,-196
f0000f84:	00f9a023          	sw	a5,0(s3)
f0000f88:	0004c783          	lbu	a5,0(s1)
f0000f8c:	00148493          	addi	s1,s1,1
f0000f90:	00879593          	slli	a1,a5,0x8
f0000f94:	02078063          	beqz	a5,f0000fb4 <neural_network_hypothesis+0x84>
f0000f98:	00042503          	lw	a0,0(s0)
f0000f9c:	00050c63          	beqz	a0,f0000fb4 <neural_network_hypothesis+0x84>
f0000fa0:	150000ef          	jal	ra,f00010f0 <fix16_smul>
f0000fa4:	00050593          	mv	a1,a0
f0000fa8:	0009a503          	lw	a0,0(s3)
f0000fac:	054000ef          	jal	ra,f0001000 <fix16_sadd>
f0000fb0:	00a9a023          	sw	a0,0(s3)
f0000fb4:	00440413          	addi	s0,s0,4
f0000fb8:	fd2418e3          	bne	s0,s2,f0000f88 <neural_network_hypothesis+0x58>
f0000fbc:	0c440913          	addi	s2,s0,196
f0000fc0:	004a0a13          	addi	s4,s4,4
f0000fc4:	00498993          	addi	s3,s3,4
f0000fc8:	fb5918e3          	bne	s2,s5,f0000f78 <neural_network_hypothesis+0x48>
f0000fcc:	02812403          	lw	s0,40(sp)
f0000fd0:	02c12083          	lw	ra,44(sp)
f0000fd4:	02412483          	lw	s1,36(sp)
f0000fd8:	02012903          	lw	s2,32(sp)
f0000fdc:	01c12983          	lw	s3,28(sp)
f0000fe0:	01812a03          	lw	s4,24(sp)
f0000fe4:	01412a83          	lw	s5,20(sp)
f0000fe8:	01012b03          	lw	s6,16(sp)
f0000fec:	000b8513          	mv	a0,s7
f0000ff0:	00c12b83          	lw	s7,12(sp)
f0000ff4:	00a00593          	li	a1,10
f0000ff8:	03010113          	addi	sp,sp,48
f0000ffc:	e05ff06f          	j	f0000e00 <neural_network_softmax>

f0001000 <fix16_sadd>:
f0001000:	00b547b3          	xor	a5,a0,a1
f0001004:	00050713          	mv	a4,a0
f0001008:	00b50533          	add	a0,a0,a1
f000100c:	0007c663          	bltz	a5,f0001018 <fix16_sadd+0x18>
f0001010:	00a747b3          	xor	a5,a4,a0
f0001014:	0007c863          	bltz	a5,f0001024 <fix16_sadd+0x24>
f0001018:	800007b7          	lui	a5,0x80000
f000101c:	00f50463          	beq	a0,a5,f0001024 <fix16_sadd+0x24>
f0001020:	00008067          	ret
f0001024:	800007b7          	lui	a5,0x80000
f0001028:	fff7c513          	not	a0,a5
f000102c:	fe075ae3          	bgez	a4,f0001020 <fix16_sadd+0x20>
f0001030:	80000537          	lui	a0,0x80000
f0001034:	00008067          	ret

f0001038 <fix16_ssub>:
f0001038:	00b547b3          	xor	a5,a0,a1
f000103c:	00050713          	mv	a4,a0
f0001040:	40b50533          	sub	a0,a0,a1
f0001044:	0007c863          	bltz	a5,f0001054 <fix16_ssub+0x1c>
f0001048:	800007b7          	lui	a5,0x80000
f000104c:	00f50863          	beq	a0,a5,f000105c <fix16_ssub+0x24>
f0001050:	00008067          	ret
f0001054:	00a747b3          	xor	a5,a4,a0
f0001058:	fe07d8e3          	bgez	a5,f0001048 <fix16_ssub+0x10>
f000105c:	800007b7          	lui	a5,0x80000
f0001060:	fff7c513          	not	a0,a5
f0001064:	fe0756e3          	bgez	a4,f0001050 <fix16_ssub+0x18>
f0001068:	80000537          	lui	a0,0x80000
f000106c:	00008067          	ret

f0001070 <fix16_mul>:
f0001070:	000107b7          	lui	a5,0x10
f0001074:	fff78793          	addi	a5,a5,-1 # ffff <STACK_SIZE+0xf7ff>
f0001078:	41055693          	srai	a3,a0,0x10
f000107c:	4105d613          	srai	a2,a1,0x10
f0001080:	00f57533          	and	a0,a0,a5
f0001084:	00f5f5b3          	and	a1,a1,a5
f0001088:	02b687b3          	mul	a5,a3,a1
f000108c:	02a60733          	mul	a4,a2,a0
f0001090:	02b505b3          	mul	a1,a0,a1
f0001094:	00e787b3          	add	a5,a5,a4
f0001098:	01079713          	slli	a4,a5,0x10
f000109c:	4107d793          	srai	a5,a5,0x10
f00010a0:	02c68533          	mul	a0,a3,a2
f00010a4:	00b70733          	add	a4,a4,a1
f00010a8:	00b735b3          	sltu	a1,a4,a1
f00010ac:	00a78533          	add	a0,a5,a0
f00010b0:	00b50533          	add	a0,a0,a1
f00010b4:	41f55793          	srai	a5,a0,0x1f
f00010b8:	40f55693          	srai	a3,a0,0xf
f00010bc:	02d79663          	bne	a5,a3,f00010e8 <fix16_mul+0x78>
f00010c0:	ffff86b7          	lui	a3,0xffff8
f00010c4:	00d706b3          	add	a3,a4,a3
f00010c8:	00d787b3          	add	a5,a5,a3
f00010cc:	00f73733          	sltu	a4,a4,a5
f00010d0:	40e50533          	sub	a0,a0,a4
f00010d4:	0107d793          	srli	a5,a5,0x10
f00010d8:	01051513          	slli	a0,a0,0x10
f00010dc:	00f56533          	or	a0,a0,a5
f00010e0:	00150513          	addi	a0,a0,1 # 80000001 <__C_STACK_TOP__+0x8fff0001>
f00010e4:	00008067          	ret
f00010e8:	80000537          	lui	a0,0x80000
f00010ec:	00008067          	ret

f00010f0 <fix16_smul>:
f00010f0:	00010637          	lui	a2,0x10
f00010f4:	fff60613          	addi	a2,a2,-1 # ffff <STACK_SIZE+0xf7ff>
f00010f8:	41055713          	srai	a4,a0,0x10
f00010fc:	00c576b3          	and	a3,a0,a2
f0001100:	4105d793          	srai	a5,a1,0x10
f0001104:	00c5f633          	and	a2,a1,a2
f0001108:	02c70833          	mul	a6,a4,a2
f000110c:	02d788b3          	mul	a7,a5,a3
f0001110:	02c686b3          	mul	a3,a3,a2
f0001114:	01180833          	add	a6,a6,a7
f0001118:	01081613          	slli	a2,a6,0x10
f000111c:	41085813          	srai	a6,a6,0x10
f0001120:	02f707b3          	mul	a5,a4,a5
f0001124:	00d60733          	add	a4,a2,a3
f0001128:	00d736b3          	sltu	a3,a4,a3
f000112c:	010787b3          	add	a5,a5,a6
f0001130:	00d787b3          	add	a5,a5,a3
f0001134:	41f7d693          	srai	a3,a5,0x1f
f0001138:	40f7d613          	srai	a2,a5,0xf
f000113c:	02c69663          	bne	a3,a2,f0001168 <fix16_smul+0x78>
f0001140:	ffff8537          	lui	a0,0xffff8
f0001144:	00a70533          	add	a0,a4,a0
f0001148:	00a686b3          	add	a3,a3,a0
f000114c:	00d73733          	sltu	a4,a4,a3
f0001150:	40e787b3          	sub	a5,a5,a4
f0001154:	01079513          	slli	a0,a5,0x10
f0001158:	0106d693          	srli	a3,a3,0x10
f000115c:	00d56533          	or	a0,a0,a3
f0001160:	00150513          	addi	a0,a0,1 # ffff8001 <__C_STACK_TOP__+0xffe8001>
f0001164:	00008067          	ret
f0001168:	fff5c593          	not	a1,a1
f000116c:	01f55793          	srli	a5,a0,0x1f
f0001170:	01f5d593          	srli	a1,a1,0x1f
f0001174:	80000537          	lui	a0,0x80000
f0001178:	fff54513          	not	a0,a0
f000117c:	00b78463          	beq	a5,a1,f0001184 <fix16_smul+0x94>
f0001180:	00008067          	ret
f0001184:	80000537          	lui	a0,0x80000
f0001188:	00008067          	ret

f000118c <fix16_div>:
f000118c:	10058a63          	beqz	a1,f00012a0 <fix16_div+0x114>
f0001190:	41f5d713          	srai	a4,a1,0x1f
f0001194:	00b74333          	xor	t1,a4,a1
f0001198:	41f55793          	srai	a5,a0,0x1f
f000119c:	40e30333          	sub	t1,t1,a4
f00011a0:	fff00e37          	lui	t3,0xfff00
f00011a4:	00a7c633          	xor	a2,a5,a0
f00011a8:	01c37e33          	and	t3,t1,t3
f00011ac:	40f60633          	sub	a2,a2,a5
f00011b0:	0c0e1063          	bnez	t3,f0001270 <fix16_div+0xe4>
f00011b4:	00f37793          	andi	a5,t1,15
f00011b8:	01100813          	li	a6,17
f00011bc:	00100713          	li	a4,1
f00011c0:	00079c63          	bnez	a5,f00011d8 <fix16_div+0x4c>
f00011c4:	00435313          	srli	t1,t1,0x4
f00011c8:	00f37793          	andi	a5,t1,15
f00011cc:	ffc80813          	addi	a6,a6,-4
f00011d0:	00079463          	bnez	a5,f00011d8 <fix16_div+0x4c>
f00011d4:	fee818e3          	bne	a6,a4,f00011c4 <fix16_div+0x38>
f00011d8:	08060263          	beqz	a2,f000125c <fix16_div+0xd0>
f00011dc:	f00008b7          	lui	a7,0xf0000
f00011e0:	fff00e93          	li	t4,-1
f00011e4:	011676b3          	and	a3,a2,a7
f00011e8:	00060713          	mv	a4,a2
f00011ec:	00000793          	li	a5,0
f00011f0:	00069c63          	bnez	a3,f0001208 <fix16_div+0x7c>
f00011f4:	00471713          	slli	a4,a4,0x4
f00011f8:	00478793          	addi	a5,a5,4
f00011fc:	011776b3          	and	a3,a4,a7
f0001200:	0ff7f793          	andi	a5,a5,255
f0001204:	fe0688e3          	beqz	a3,f00011f4 <fix16_div+0x68>
f0001208:	00074a63          	bltz	a4,f000121c <fix16_div+0x90>
f000120c:	00178793          	addi	a5,a5,1
f0001210:	00171713          	slli	a4,a4,0x1
f0001214:	0ff7f793          	andi	a5,a5,255
f0001218:	fe075ae3          	bgez	a4,f000120c <fix16_div+0x80>
f000121c:	00f85463          	bge	a6,a5,f0001224 <fix16_div+0x98>
f0001220:	00080793          	mv	a5,a6
f0001224:	00f61633          	sll	a2,a2,a5
f0001228:	026656b3          	divu	a3,a2,t1
f000122c:	40f807b3          	sub	a5,a6,a5
f0001230:	00fed733          	srl	a4,t4,a5
f0001234:	fff74713          	not	a4,a4
f0001238:	00f69833          	sll	a6,a3,a5
f000123c:	00d77733          	and	a4,a4,a3
f0001240:	02667633          	remu	a2,a2,t1
f0001244:	010e0e33          	add	t3,t3,a6
f0001248:	04071c63          	bnez	a4,f00012a0 <fix16_div+0x114>
f000124c:	00161613          	slli	a2,a2,0x1
f0001250:	fff78813          	addi	a6,a5,-1
f0001254:	00060463          	beqz	a2,f000125c <fix16_div+0xd0>
f0001258:	f80856e3          	bgez	a6,f00011e4 <fix16_div+0x58>
f000125c:	001e0e13          	addi	t3,t3,1 # fff00001 <__C_STACK_TOP__+0xfef0001>
f0001260:	00a5c5b3          	xor	a1,a1,a0
f0001264:	001e5513          	srli	a0,t3,0x1
f0001268:	0205c863          	bltz	a1,f0001298 <fix16_div+0x10c>
f000126c:	00008067          	ret
f0001270:	01135e13          	srli	t3,t1,0x11
f0001274:	001e0e13          	addi	t3,t3,1
f0001278:	03c65e33          	divu	t3,a2,t3
f000127c:	026e07b3          	mul	a5,t3,t1
f0001280:	03c32733          	mulhsu	a4,t1,t3
f0001284:	0117d793          	srli	a5,a5,0x11
f0001288:	00f71713          	slli	a4,a4,0xf
f000128c:	00f767b3          	or	a5,a4,a5
f0001290:	40f60633          	sub	a2,a2,a5
f0001294:	f21ff06f          	j	f00011b4 <fix16_div+0x28>
f0001298:	40a00533          	neg	a0,a0
f000129c:	00008067          	ret
f00012a0:	80000537          	lui	a0,0x80000
f00012a4:	00008067          	ret

f00012a8 <fix16_exp>:
f00012a8:	fd010113          	addi	sp,sp,-48
f00012ac:	02112623          	sw	ra,44(sp)
f00012b0:	02812423          	sw	s0,40(sp)
f00012b4:	02912223          	sw	s1,36(sp)
f00012b8:	03212023          	sw	s2,32(sp)
f00012bc:	01312e23          	sw	s3,28(sp)
f00012c0:	01412c23          	sw	s4,24(sp)
f00012c4:	01512a23          	sw	s5,20(sp)
f00012c8:	01612823          	sw	s6,16(sp)
f00012cc:	01712623          	sw	s7,12(sp)
f00012d0:	01812423          	sw	s8,8(sp)
f00012d4:	01912223          	sw	s9,4(sp)
f00012d8:	01a12023          	sw	s10,0(sp)
f00012dc:	0c050c63          	beqz	a0,f00013b4 <fix16_exp+0x10c>
f00012e0:	00010937          	lui	s2,0x10
f00012e4:	00050a13          	mv	s4,a0
f00012e8:	13250463          	beq	a0,s2,f0001410 <fix16_exp+0x168>
f00012ec:	000a67b7          	lui	a5,0xa6
f00012f0:	5ae78793          	addi	a5,a5,1454 # a65ae <STACK_SIZE+0xa5dae>
f00012f4:	0ca7c863          	blt	a5,a0,f00013c4 <fix16_exp+0x11c>
f00012f8:	fff437b7          	lui	a5,0xfff43
f00012fc:	76e78793          	addi	a5,a5,1902 # fff4376e <__C_STACK_TOP__+0xff3376e>
f0001300:	0af54e63          	blt	a0,a5,f00013bc <fix16_exp+0x114>
f0001304:	41f55793          	srai	a5,a0,0x1f
f0001308:	00a7cd33          	xor	s10,a5,a0
f000130c:	40fd0d33          	sub	s10,s10,a5
f0001310:	012d0933          	add	s2,s10,s2
f0001314:	000d0413          	mv	s0,s10
f0001318:	00300493          	li	s1,3
f000131c:	000209b7          	lui	s3,0x20
f0001320:	1f300a93          	li	s5,499
f0001324:	01e00c13          	li	s8,30
f0001328:	00f00b93          	li	s7,15
f000132c:	01300c93          	li	s9,19
f0001330:	00010b37          	lui	s6,0x10
f0001334:	0140006f          	j	f0001348 <fix16_exp+0xa0>
f0001338:	02fbee63          	bltu	s7,a5,f0001374 <fix16_exp+0xcc>
f000133c:	02acdc63          	bge	s9,a0,f0001374 <fix16_exp+0xcc>
f0001340:	016989b3          	add	s3,s3,s6
f0001344:	00148493          	addi	s1,s1,1
f0001348:	00098593          	mv	a1,s3
f000134c:	000d0513          	mv	a0,s10
f0001350:	e3dff0ef          	jal	ra,f000118c <fix16_div>
f0001354:	00050593          	mv	a1,a0
f0001358:	00040513          	mv	a0,s0
f000135c:	d15ff0ef          	jal	ra,f0001070 <fix16_mul>
f0001360:	00050413          	mv	s0,a0
f0001364:	fff48793          	addi	a5,s1,-1
f0001368:	00a90933          	add	s2,s2,a0
f000136c:	fcaad6e3          	bge	s5,a0,f0001338 <fix16_exp+0x90>
f0001370:	fd8498e3          	bne	s1,s8,f0001340 <fix16_exp+0x98>
f0001374:	040a4e63          	bltz	s4,f00013d0 <fix16_exp+0x128>
f0001378:	02c12083          	lw	ra,44(sp)
f000137c:	02812403          	lw	s0,40(sp)
f0001380:	02412483          	lw	s1,36(sp)
f0001384:	01c12983          	lw	s3,28(sp)
f0001388:	01812a03          	lw	s4,24(sp)
f000138c:	01412a83          	lw	s5,20(sp)
f0001390:	01012b03          	lw	s6,16(sp)
f0001394:	00c12b83          	lw	s7,12(sp)
f0001398:	00812c03          	lw	s8,8(sp)
f000139c:	00412c83          	lw	s9,4(sp)
f00013a0:	00012d03          	lw	s10,0(sp)
f00013a4:	00090513          	mv	a0,s2
f00013a8:	02012903          	lw	s2,32(sp)
f00013ac:	03010113          	addi	sp,sp,48
f00013b0:	00008067          	ret
f00013b4:	00010937          	lui	s2,0x10
f00013b8:	fc1ff06f          	j	f0001378 <fix16_exp+0xd0>
f00013bc:	00000913          	li	s2,0
f00013c0:	fb9ff06f          	j	f0001378 <fix16_exp+0xd0>
f00013c4:	80000937          	lui	s2,0x80000
f00013c8:	fff94913          	not	s2,s2
f00013cc:	fadff06f          	j	f0001378 <fix16_exp+0xd0>
f00013d0:	02812403          	lw	s0,40(sp)
f00013d4:	02c12083          	lw	ra,44(sp)
f00013d8:	02412483          	lw	s1,36(sp)
f00013dc:	01c12983          	lw	s3,28(sp)
f00013e0:	01812a03          	lw	s4,24(sp)
f00013e4:	01412a83          	lw	s5,20(sp)
f00013e8:	01012b03          	lw	s6,16(sp)
f00013ec:	00c12b83          	lw	s7,12(sp)
f00013f0:	00812c03          	lw	s8,8(sp)
f00013f4:	00412c83          	lw	s9,4(sp)
f00013f8:	00012d03          	lw	s10,0(sp)
f00013fc:	00090593          	mv	a1,s2
f0001400:	02012903          	lw	s2,32(sp)
f0001404:	00010537          	lui	a0,0x10
f0001408:	03010113          	addi	sp,sp,48
f000140c:	d81ff06f          	j	f000118c <fix16_div>
f0001410:	0002b937          	lui	s2,0x2b
f0001414:	7e190913          	addi	s2,s2,2017 # 2b7e1 <STACK_SIZE+0x2afe1>
f0001418:	f61ff06f          	j	f0001378 <fix16_exp+0xd0>

f000141c <strnlen>:
f000141c:	00b506b3          	add	a3,a0,a1
f0001420:	00050793          	mv	a5,a0
f0001424:	00059863          	bnez	a1,f0001434 <strnlen+0x18>
f0001428:	0240006f          	j	f000144c <strnlen+0x30>
f000142c:	00178793          	addi	a5,a5,1
f0001430:	00f68a63          	beq	a3,a5,f0001444 <strnlen+0x28>
f0001434:	0007c703          	lbu	a4,0(a5)
f0001438:	fe071ae3          	bnez	a4,f000142c <strnlen+0x10>
f000143c:	40a78533          	sub	a0,a5,a0
f0001440:	00008067          	ret
f0001444:	40a68533          	sub	a0,a3,a0
f0001448:	00008067          	ret
f000144c:	00000513          	li	a0,0
f0001450:	00008067          	ret
